Certificate Request:
    Data:
        Version: 0 (0x0)
        Subject: C=FR, O=NodeOPCUA, CN=NodeOPCUA
        Subject Public Key Info:
            Public Key Algorithm: rsaEncryption
                Public-Key: (2048 bit)
                Modulus:
                    00:c8:e9:fe:fb:8f:d9:46:08:fb:6a:87:23:77:2e:
                    d7:98:2f:5e:c1:f7:f8:58:e3:a0:00:41:23:49:60:
                    34:d1:e4:a5:7a:4a:88:f4:1e:da:e8:e5:45:73:f1:
                    52:fc:e0:16:3d:c4:93:df:95:a7:39:e1:1d:16:ba:
                    05:b0:13:7b:5f:4e:f7:02:60:ad:5a:2f:5d:78:47:
                    0a:7a:d5:51:a1:02:04:d7:6a:26:29:9c:30:56:39:
                    ec:09:cc:c6:df:c1:8d:09:ef:a9:93:e3:0e:4f:66:
                    23:b2:13:f7:af:83:ad:fe:06:bb:fb:f8:1e:49:d6:
                    e6:66:6e:44:86:26:c1:a9:9d:1c:cc:46:bd:49:48:
                    40:a9:42:10:67:1f:ea:73:c4:94:d5:72:a7:57:4f:
                    63:9c:fb:35:2b:ae:06:2b:27:7e:87:c9:4d:ef:c8:
                    ce:75:ee:21:6c:b9:f6:fd:df:67:1a:43:3a:72:b4:
                    e4:b6:9c:64:5b:54:c9:3b:43:20:a8:5c:58:66:69:
                    94:b9:d8:f7:fe:f7:ea:59:77:fa:61:0a:ba:09:89:
                    dc:92:2a:9f:23:9b:0d:a3:76:9c:ec:9e:b8:e2:ca:
                    9f:17:3c:46:ae:94:a7:9b:52:53:65:d9:db:e5:51:
                    ab:07:d3:a5:78:f8:6b:0d:94:12:b3:47:e9:ac:a7:
                    6e:27
                Exponent: 65537 (0x10001)
        Attributes:
        Requested Extensions:
            X509v3 Basic Constraints: 
                CA:FALSE
            X509v3 Key Usage: critical
                Certificate Sign, CRL Sign
            X509v3 Subject Alternative Name: 
                URI:undefined
    Signature Algorithm: sha256WithRSAEncryption
         64:42:f9:5c:6f:21:a2:57:5e:0e:70:c5:85:8c:25:c7:7f:af:
         b7:23:03:58:6a:6a:96:35:f6:88:34:e4:bf:db:eb:b8:a2:0e:
         33:ff:18:5e:df:7c:4c:21:bd:ad:80:58:e6:31:e8:8d:8a:65:
         74:c8:68:f1:af:75:95:67:bb:d0:c8:c1:8a:c2:2e:9a:de:88:
         61:0c:6b:a0:0b:65:51:df:59:d3:2c:b7:b8:23:5f:0b:0c:e0:
         9a:c0:49:46:76:e2:3f:a5:ae:38:ee:4b:1a:a0:74:26:f1:96:
         71:80:1a:fe:23:03:a9:2e:7d:62:79:67:16:62:a4:28:45:e4:
         ca:b9:db:c9:59:0a:ef:84:93:c8:80:61:6d:3a:11:e3:80:63:
         c7:eb:7e:ee:1f:a7:57:8c:a3:c2:e9:52:9c:12:0c:55:79:18:
         ad:a5:ca:86:cb:f1:fb:cf:9f:51:2e:6c:e8:a8:44:19:59:88:
         e8:56:c3:bd:05:7a:49:05:18:ca:2b:16:21:37:75:e6:b4:fc:
         34:09:fd:7f:db:3c:2e:9f:2a:d8:78:15:2b:24:be:3d:71:c6:
         12:c6:04:66:c9:ff:92:83:8b:00:f4:47:6e:2b:33:98:45:5c:
         3c:a3:30:0d:b9:49:ec:d2:28:46:8f:d1:51:4a:8d:e9:fa:20:
         be:d9:48:f3
-----BEGIN CERTIFICATE REQUEST-----
MIICvDCCAaQCAQAwNTELMAkGA1UEBhMCRlIxEjAQBgNVBAoMCU5vZGVPUENVQTES
MBAGA1UEAwwJTm9kZU9QQ1VBMIIBIjANBgkqhkiG9w0BAQEFAAOCAQ8AMIIBCgKC
AQEAyOn++4/ZRgj7aocjdy7XmC9ewff4WOOgAEEjSWA00eSlekqI9B7a6OVFc/FS
/OAWPcST35WnOeEdFroFsBN7X073AmCtWi9deEcKetVRoQIE12omKZwwVjnsCczG
38GNCe+pk+MOT2YjshP3r4Ot/ga7+/geSdbmZm5EhibBqZ0czEa9SUhAqUIQZx/q
c8SU1XKnV09jnPs1K64GKyd+h8lN78jOde4hbLn2/d9nGkM6crTktpxkW1TJO0Mg
qFxYZmmUudj3/vfqWXf6YQq6CYnckiqfI5sNo3ac7J644sqfFzxGrpSnm1JTZdnb
5VGrB9OlePhrDZQSs0fprKduJwIDAQABoEIwQAYJKoZIhvcNAQkOMTMwMTAJBgNV
HRMEAjAAMA4GA1UdDwEB/wQEAwIBBjAUBgNVHREEDTALhgl1bmRlZmluZWQwDQYJ
KoZIhvcNAQELBQADggEBAGRC+VxvIaJXXg5wxYWMJcd/r7cjA1hqapY19og05L/b
67iiDjP/GF7ffEwhva2AWOYx6I2KZXTIaPGvdZVnu9DIwYrCLpreiGEMa6ALZVHf
WdMst7gjXwsM4JrASUZ24j+lrjjuSxqgdCbxlnGAGv4jA6kufWJ5ZxZipChF5Mq5
28lZCu+Ek8iAYW06EeOAY8frfu4fp1eMo8LpUpwSDFV5GK2lyobL8fvPn1EubOio
RBlZiOhWw70FekkFGMorFiE3dea0/DQJ/X/bPC6fKth4FSskvj1xxhLGBGbJ/5KD
iwD0R24rM5hFXDyjMA25SezSKEaP0VFKjen6IL7ZSPM=
-----END CERTIFICATE REQUEST-----
