Certificate:
    Data:
        Version: 3 (0x2)
        Serial Number: 4096 (0x1000)
    Signature Algorithm: sha256WithRSAEncryption
        Issuer: C=FR, ST=IDF, L=Paris, O=Local NODE-OPCUA Certificate Authority, CN=NodeOPCUA-CA
        Validity
            Not Before: Aug 30 09:25:25 2017 GMT
            Not After : Aug 30 09:25:25 2018 GMT
        Subject: C=FR, O=NodeOPCUA, CN=NodeOPCUA
        Subject Public Key Info:
            Public Key Algorithm: rsaEncryption
                Public-Key: (1024 bit)
                Modulus:
                    00:9e:de:86:f2:aa:1b:ea:4f:0e:8f:cc:91:d4:f5:
                    00:43:5e:58:3e:f8:a9:dd:2f:9f:cb:d2:c6:7a:74:
                    04:64:9c:48:67:3b:7b:8d:84:f8:45:13:0a:a8:3e:
                    a2:de:c8:51:15:e4:7d:ee:49:be:7a:43:42:96:6e:
                    16:7a:a9:34:56:42:3b:47:71:27:0f:56:79:0a:58:
                    a2:39:56:b4:ba:47:a9:3e:8d:04:8a:7b:43:b4:27:
                    7f:5e:8e:01:bb:23:13:db:d5:41:ec:e1:2d:29:0d:
                    b0:db:14:7d:18:20:51:22:42:20:a1:6a:e5:f1:a3:
                    f4:9f:b2:aa:43:b0:d8:83:51
                Exponent: 65537 (0x10001)
        X509v3 extensions:
            X509v3 Basic Constraints: critical
                CA:FALSE
            X509v3 Subject Key Identifier: 
                A1:DA:79:2C:6C:D7:57:19:DE:D1:24:B5:FB:55:C0:62:92:E0:EB:37
            X509v3 Authority Key Identifier: 
                keyid:84:FF:9C:93:B1:D0:E8:CE:A2:B6:D0:C9:6C:1E:04:B4:6E:43:47:DF
                DirName:/C=FR/ST=IDF/L=Paris/O=Local NODE-OPCUA Certificate Authority/CN=NodeOPCUA-CA
                serial:8D:7E:27:B2:25:30:DA:6F

            X509v3 Subject Alternative Name: 
                URI:urn:MUCKI:NodeOPCUA-Client, DNS:localhost, DNS:MUCKI
            Netscape Comment: 
                OpenSSL Generated Certificate
            X509v3 Key Usage: critical
                Digital Signature, Non Repudiation, Key Encipherment, Data Encipherment, Key Agreement, Certificate Sign
            X509v3 Extended Key Usage: critical
                TLS Web Server Authentication, TLS Web Client Authentication
    Signature Algorithm: sha256WithRSAEncryption
         1a:61:a5:2c:58:4c:e0:94:13:07:a3:7d:26:9e:5b:61:79:67:
         97:5f:6a:bd:e2:a2:b2:9e:6d:c9:7f:64:0f:15:3e:a8:c5:fe:
         56:35:68:ee:93:66:c8:76:30:7f:22:fa:8f:33:68:5e:73:97:
         aa:40:85:49:e7:08:ee:34:a4:f8:93:27:2a:ba:2e:8f:d1:30:
         c0:b5:27:0b:12:79:f1:71:f2:90:23:28:b0:5a:09:ea:06:96:
         67:71:ed:67:c1:78:01:84:7a:69:9c:ac:92:c8:27:00:7b:bb:
         93:33:7a:06:41:c1:b0:e3:55:a3:39:69:08:05:84:e3:dd:d7:
         ea:38:21:6f:e0:a1:16:9c:d0:aa:58:53:41:91:b9:74:ae:34:
         b4:ae:ba:c0:8a:64:21:96:45:1c:f2:4d:3b:44:54:91:34:48:
         be:81:72:4d:c8:d3:e2:8c:ea:59:84:ea:34:13:20:bb:66:6a:
         39:f4:8d:c5:2c:e9:c0:20:70:f5:2a:73:ad:1c:63:61:ba:9c:
         30:a6:93:fa:16:ea:19:70:85:8f:91:cd:c2:6a:da:1b:50:63:
         2d:9c:41:cf:1e:71:b2:79:a6:3e:b7:54:ed:c1:4c:83:ff:3d:
         5d:de:95:2c:1a:65:4d:39:79:1a:d0:bf:09:98:8c:bf:d6:81:
         c1:d3:9d:47
-----BEGIN CERTIFICATE-----
MIIEGDCCAwCgAwIBAgICEAAwDQYJKoZIhvcNAQELBQAwczELMAkGA1UEBhMCRlIx
DDAKBgNVBAgTA0lERjEOMAwGA1UEBxMFUGFyaXMxLzAtBgNVBAoTJkxvY2FsIE5P
REUtT1BDVUEgQ2VydGlmaWNhdGUgQXV0aG9yaXR5MRUwEwYDVQQDEwxOb2RlT1BD
VUEtQ0EwIhgPMjAxNzA4MzAwOTI1MjVaGA8yMDE4MDgzMDA5MjUyNVowNTELMAkG
A1UEBhMCRlIxEjAQBgNVBAoMCU5vZGVPUENVQTESMBAGA1UEAwwJTm9kZU9QQ1VB
MIGfMA0GCSqGSIb3DQEBAQUAA4GNADCBiQKBgQCe3obyqhvqTw6PzJHU9QBDXlg+
+KndL5/L0sZ6dARknEhnO3uNhPhFEwqoPqLeyFEV5H3uSb56Q0KWbhZ6qTRWQjtH
cScPVnkKWKI5VrS6R6k+jQSKe0O0J39ejgG7IxPb1UHs4S0pDbDbFH0YIFEiQiCh
auXxo/SfsqpDsNiDUQIDAQABo4IBcjCCAW4wDAYDVR0TAQH/BAIwADAdBgNVHQ4E
FgQUodp5LGzXVxne0SS1+1XAYpLg6zcwgaUGA1UdIwSBnTCBmoAUhP+ck7HQ6M6i
ttDJbB4EtG5DR9+hd6R1MHMxCzAJBgNVBAYTAkZSMQwwCgYDVQQIEwNJREYxDjAM
BgNVBAcTBVBhcmlzMS8wLQYDVQQKEyZMb2NhbCBOT0RFLU9QQ1VBIENlcnRpZmlj
YXRlIEF1dGhvcml0eTEVMBMGA1UEAxMMTm9kZU9QQ1VBLUNBggkAjX4nsiUw2m8w
NwYDVR0RBDAwLoYadXJuOk1VQ0tJOk5vZGVPUENVQS1DbGllbnSCCWxvY2FsaG9z
dIIFTVVDS0kwLAYJYIZIAYb4QgENBB8WHU9wZW5TU0wgR2VuZXJhdGVkIENlcnRp
ZmljYXRlMA4GA1UdDwEB/wQEAwIC/DAgBgNVHSUBAf8EFjAUBggrBgEFBQcDAQYI
KwYBBQUHAwIwDQYJKoZIhvcNAQELBQADggEBABphpSxYTOCUEwejfSaeW2F5Z5df
ar3iorKebcl/ZA8VPqjF/lY1aO6TZsh2MH8i+o8zaF5zl6pAhUnnCO40pPiTJyq6
Lo/RMMC1JwsSefFx8pAjKLBaCeoGlmdx7WfBeAGEemmcrJLIJwB7u5MzegZBwbDj
VaM5aQgFhOPd1+o4IW/goRac0KpYU0GRuXSuNLSuusCKZCGWRRzyTTtEVJE0SL6B
ck3I0+KM6lmE6jQTILtmajn0jcUs6cAgcPUqc60cY2G6nDCmk/oW6hlwhY+RzcJq
2htQYy2cQc8ecbJ5pj63VO3BTIP/PV3elSwaZU05eRrQvwmYjL/WgcHTnUc=
-----END CERTIFICATE-----
-----BEGIN CERTIFICATE-----
MIIE3TCCA8WgAwIBAgIJAI1+J7IlMNpvMA0GCSqGSIb3DQEBCwUAMHMxCzAJBgNV
BAYTAkZSMQwwCgYDVQQIEwNJREYxDjAMBgNVBAcTBVBhcmlzMS8wLQYDVQQKEyZM
b2NhbCBOT0RFLU9QQ1VBIENlcnRpZmljYXRlIEF1dGhvcml0eTEVMBMGA1UEAxMM
Tm9kZU9QQ1VBLUNBMB4XDTE3MDgzMTA5MjUyNloXDTI3MDgyOTA5MjUyNlowczEL
MAkGA1UEBhMCRlIxDDAKBgNVBAgTA0lERjEOMAwGA1UEBxMFUGFyaXMxLzAtBgNV
BAoTJkxvY2FsIE5PREUtT1BDVUEgQ2VydGlmaWNhdGUgQXV0aG9yaXR5MRUwEwYD
VQQDEwxOb2RlT1BDVUEtQ0EwggEiMA0GCSqGSIb3DQEBAQUAA4IBDwAwggEKAoIB
AQDG3v8admiXUVX1VCe/h9RQi7VbUfxK2lWcIIp4BgGYLQiyIh0sK9sba2b0tlO9
fIeSQuwWQlNKSE0ElEXUYmSWnpqUhZWjG6QZvE+VEJ5pIlYZNk4ABql15HaqoA6A
ZpUZnj9VQcK7C8S/A9WF/rOu3KxCNbwX0O3yR/zSzCqBGTcvE9EXvXC9X5rB7BKo
y7xqduE/bAhfgDnR0wHFX8M7PgId6LpF8+NWl8C7ApVcMxDYmiDO+P98EexuLyZp
KxGFuBT2mmb/YOOmZJ6CqorcDF43HHjtB2pybt9aCQkr1L9RFhdwKZVpSBTurlFh
YYxRzck1795Zb3CaQ1XJZEVNAgMBAAGjggFyMIIBbjAdBgNVHQ4EFgQUhP+ck7HQ
6M6ittDJbB4EtG5DR98wgaUGA1UdIwSBnTCBmoAUhP+ck7HQ6M6ittDJbB4EtG5D
R9+hd6R1MHMxCzAJBgNVBAYTAkZSMQwwCgYDVQQIEwNJREYxDjAMBgNVBAcTBVBh
cmlzMS8wLQYDVQQKEyZMb2NhbCBOT0RFLU9QQ1VBIENlcnRpZmljYXRlIEF1dGhv
cml0eTEVMBMGA1UEAxMMTm9kZU9QQ1VBLUNBggkAjX4nsiUw2m8wDAYDVR0TBAUw
AwEB/zAOBgNVHQ8BAf8EBAMCAQYwVwYJYIZIAYb4QgENBEoWSENBIENlcnRpZmlj
YXRlIGdlbmVyYXRlZCBieSBOb2RlLU9QQ1VBIENlcnRpZmljYXRlIHV0aWxpdHkg
dXNpbmcgb3BlbnNzbDAuBgNVHR8EJzAlMCOgIaAfhh1odHRwOi8vbG9jYWxob3N0
Ojg5MDAvY3JsLnBlbTANBgkqhkiG9w0BAQsFAAOCAQEASuoPMYtdxzTU5UuaU7Sr
nXmqqFLaPfFChdBdCiVqA+ZayhDHmrn1+D4zTHQ6fs7eSnoBtABSOlE2NoGFE+or
aC/oienkp48m/+2gx0Hi5blY0by0hSC/YAhMAJsOArfPB/Ma/O6+phMtudeaE42Q
qyUBqnRzH/J5LCzqfJlWm0mu26MVuyZxNWx4TMALPZFLT5AxHKd2VvUVssVWwBPb
rr29Pycy7/VuELsBVk37u449oZVdZk8NTfemKpb5VymSIaxhJGT4GN4oXkgp3kP4
+H/2p5sEVWeYB0e0EkagIQP2TpYSFqemdai4raNH7mTNfMaLwzfdhEtChV42de71
bQ==
-----END CERTIFICATE-----
