Certificate Request:
    Data:
        Version: 0 (0x0)
        Subject: C=FR, O=NodeOPCUA, CN=NodeOPCUA
        Subject Public Key Info:
            Public Key Algorithm: rsaEncryption
                Public-Key: (1024 bit)
                Modulus:
                    00:9e:de:86:f2:aa:1b:ea:4f:0e:8f:cc:91:d4:f5:
                    00:43:5e:58:3e:f8:a9:dd:2f:9f:cb:d2:c6:7a:74:
                    04:64:9c:48:67:3b:7b:8d:84:f8:45:13:0a:a8:3e:
                    a2:de:c8:51:15:e4:7d:ee:49:be:7a:43:42:96:6e:
                    16:7a:a9:34:56:42:3b:47:71:27:0f:56:79:0a:58:
                    a2:39:56:b4:ba:47:a9:3e:8d:04:8a:7b:43:b4:27:
                    7f:5e:8e:01:bb:23:13:db:d5:41:ec:e1:2d:29:0d:
                    b0:db:14:7d:18:20:51:22:42:20:a1:6a:e5:f1:a3:
                    f4:9f:b2:aa:43:b0:d8:83:51
                Exponent: 65537 (0x10001)
        Attributes:
        Requested Extensions:
            X509v3 Basic Constraints: 
                CA:FALSE
            X509v3 Key Usage: critical
                Certificate Sign, CRL Sign
            X509v3 Subject Alternative Name: 
                URI:undefined
    Signature Algorithm: sha256WithRSAEncryption
         7a:0b:77:d4:b7:ba:51:93:2d:32:02:4d:87:8d:f5:34:50:ee:
         d4:20:29:40:c7:f1:96:f0:73:b7:b9:a6:c4:ab:52:a8:1e:c5:
         c3:92:0f:e7:e1:cb:84:49:c5:c8:41:21:5f:98:1e:6a:52:71:
         b2:46:40:81:2d:a4:0b:8e:0a:6c:a2:f3:5b:1c:be:42:92:1d:
         76:ff:e2:9c:60:6f:0b:26:99:52:00:6c:85:b9:e5:5a:1c:99:
         e7:a5:8f:b6:f0:ae:45:ac:e0:92:05:22:36:52:db:b8:c2:83:
         78:d5:38:9e:fb:65:b7:87:92:99:f3:97:34:60:ac:69:25:2d:
         65:fa
-----BEGIN CERTIFICATE REQUEST-----
MIIBtzCCASACAQAwNTELMAkGA1UEBhMCRlIxEjAQBgNVBAoMCU5vZGVPUENVQTES
MBAGA1UEAwwJTm9kZU9QQ1VBMIGfMA0GCSqGSIb3DQEBAQUAA4GNADCBiQKBgQCe
3obyqhvqTw6PzJHU9QBDXlg++KndL5/L0sZ6dARknEhnO3uNhPhFEwqoPqLeyFEV
5H3uSb56Q0KWbhZ6qTRWQjtHcScPVnkKWKI5VrS6R6k+jQSKe0O0J39ejgG7IxPb
1UHs4S0pDbDbFH0YIFEiQiChauXxo/SfsqpDsNiDUQIDAQABoEIwQAYJKoZIhvcN
AQkOMTMwMTAJBgNVHRMEAjAAMA4GA1UdDwEB/wQEAwIBBjAUBgNVHREEDTALhgl1
bmRlZmluZWQwDQYJKoZIhvcNAQELBQADgYEAegt31Le6UZMtMgJNh431NFDu1CAp
QMfxlvBzt7mmxKtSqB7Fw5IP5+HLhEnFyEEhX5gealJxskZAgS2kC44KbKLzWxy+
QpIddv/inGBvCyaZUgBshbnlWhyZ56WPtvCuRazgkgUiNlLbuMKDeNU4nvtlt4eS
mfOXNGCsaSUtZfo=
-----END CERTIFICATE REQUEST-----
