Certificate Request:
    Data:
        Version: 0 (0x0)
        Subject: C=FR, O=NodeOPCUA, CN=NodeOPCUA
        Subject Public Key Info:
            Public Key Algorithm: rsaEncryption
                Public-Key: (1024 bit)
                Modulus:
                    00:df:9b:6f:71:03:98:01:dc:ce:a7:9e:c2:b6:26:
                    e4:20:92:3d:2f:cf:31:ec:3e:a1:c1:ee:76:6b:3a:
                    69:94:a6:0c:fb:91:39:3b:95:8e:4b:4a:eb:63:7c:
                    bb:f2:35:32:2c:73:90:d3:fc:e4:f7:d9:28:d7:89:
                    72:70:0f:1b:fc:68:b7:75:08:cb:1a:87:aa:59:3c:
                    8f:6a:19:61:9f:91:55:6c:1c:1a:77:a9:48:08:b2:
                    15:e8:e6:aa:51:10:02:a9:ab:24:a3:92:5d:2a:68:
                    f7:41:7d:12:84:6d:07:13:55:24:0c:d9:b3:55:0e:
                    fa:d0:d9:5f:12:57:d3:0d:1f
                Exponent: 65537 (0x10001)
        Attributes:
        Requested Extensions:
            X509v3 Basic Constraints: 
                CA:FALSE
            X509v3 Key Usage: critical
                Certificate Sign, CRL Sign
            X509v3 Subject Alternative Name: 
                URI:undefined
    Signature Algorithm: sha256WithRSAEncryption
         db:8d:5c:92:24:7e:42:81:11:4b:f1:1b:4b:88:4b:9c:1f:5a:
         2a:4f:77:d4:9f:29:69:ce:df:ad:82:c8:d3:f9:8e:44:ff:a3:
         4d:5b:5f:bd:f8:ca:40:4e:91:ab:4b:fd:9c:1e:99:31:30:75:
         e4:d1:aa:d0:ff:9b:8d:10:b8:c3:3c:a4:e6:d4:cf:18:64:25:
         4f:66:18:d8:d4:b9:6e:21:46:e9:3d:b9:05:44:ae:79:21:bc:
         f5:0b:63:71:ab:0d:ea:82:42:7a:82:e7:bd:73:a9:bc:0d:6f:
         51:f4:a3:1f:96:39:8d:a3:58:ee:36:41:15:a6:8b:f4:a0:cc:
         98:5d
-----BEGIN CERTIFICATE REQUEST-----
MIIBtzCCASACAQAwNTELMAkGA1UEBhMCRlIxEjAQBgNVBAoMCU5vZGVPUENVQTES
MBAGA1UEAwwJTm9kZU9QQ1VBMIGfMA0GCSqGSIb3DQEBAQUAA4GNADCBiQKBgQDf
m29xA5gB3M6nnsK2JuQgkj0vzzHsPqHB7nZrOmmUpgz7kTk7lY5LSutjfLvyNTIs
c5DT/OT32SjXiXJwDxv8aLd1CMsah6pZPI9qGWGfkVVsHBp3qUgIshXo5qpREAKp
qySjkl0qaPdBfRKEbQcTVSQM2bNVDvrQ2V8SV9MNHwIDAQABoEIwQAYJKoZIhvcN
AQkOMTMwMTAJBgNVHRMEAjAAMA4GA1UdDwEB/wQEAwIBBjAUBgNVHREEDTALhgl1
bmRlZmluZWQwDQYJKoZIhvcNAQELBQADgYEA241ckiR+QoERS/EbS4hLnB9aKk93
1J8pac7frYLI0/mORP+jTVtfvfjKQE6Rq0v9nB6ZMTB15NGq0P+bjRC4wzyk5tTP
GGQlT2YY2NS5biFG6T25BUSueSG89QtjcasN6oJCeoLnvXOpvA1vUfSjH5Y5jaNY
7jZBFaaL9KDMmF0=
-----END CERTIFICATE REQUEST-----
