Certificate Request:
    Data:
        Version: 0 (0x0)
        Subject: C=FR, O=NodeOPCUA, CN=NodeOPCUA
        Subject Public Key Info:
            Public Key Algorithm: rsaEncryption
                Public-Key: (2048 bit)
                Modulus:
                    00:c6:d8:12:eb:b7:9f:31:be:28:57:cd:e8:bf:cc:
                    ed:79:20:36:23:e6:2c:2c:03:38:07:7b:6c:16:a3:
                    b5:7a:31:6a:de:6e:af:cd:74:7b:7b:d1:e1:36:31:
                    1b:81:09:95:61:95:09:aa:0b:1f:26:21:07:22:d8:
                    10:8e:cf:1d:1b:b9:c7:8f:21:6f:a3:10:8c:2b:3e:
                    12:fb:70:5f:f8:ee:dd:53:47:64:23:3b:c6:dc:fa:
                    5e:39:4e:79:ac:f1:21:2b:3f:f8:63:dc:97:4b:fa:
                    b3:7e:18:ee:46:94:1e:e5:1c:9c:ef:3b:0a:b8:3a:
                    86:d3:ff:94:49:7e:25:c6:be:4e:8f:b6:94:83:ec:
                    3e:2f:12:d2:be:db:af:fc:54:08:01:69:b9:c9:85:
                    00:8f:ca:a9:e8:56:7e:11:73:32:7c:1e:6c:fb:a8:
                    c1:f5:3d:56:b7:40:d2:d1:78:c5:5f:8b:e7:fb:ad:
                    a2:83:ba:e0:d5:7d:ca:f3:03:6c:60:ad:83:c4:ff:
                    80:fc:35:dc:86:5e:a4:72:19:c5:6f:5b:f7:4e:b8:
                    c9:73:28:71:19:f7:0c:c5:f6:89:5a:f2:21:32:dc:
                    a5:59:a6:d3:d2:c0:99:66:0b:51:a1:01:b4:38:4b:
                    58:4b:33:81:c1:9e:62:5d:12:91:60:e4:15:e1:84:
                    cc:75
                Exponent: 65537 (0x10001)
        Attributes:
        Requested Extensions:
            X509v3 Basic Constraints: 
                CA:FALSE
            X509v3 Key Usage: critical
                Certificate Sign, CRL Sign
            X509v3 Subject Alternative Name: 
                URI:undefined
    Signature Algorithm: sha256WithRSAEncryption
         0d:d4:62:ef:13:97:66:3e:c5:a9:17:de:60:b7:ae:a5:5e:d3:
         6e:4e:d2:f1:d8:11:4f:d9:aa:02:00:ef:7d:cb:55:cb:19:4e:
         23:7a:ea:57:d1:d9:2d:ca:24:93:15:fb:9a:fa:8d:05:5f:90:
         05:88:0f:88:8e:fe:0c:00:ae:39:c8:ca:c5:8c:43:f9:4d:29:
         12:84:49:03:06:da:91:cf:23:5b:b3:fa:c1:42:f1:a2:2e:e7:
         b3:62:64:12:9d:06:d8:4c:0d:90:a7:19:96:ff:26:35:58:f0:
         ea:87:ac:91:90:55:fe:ec:47:54:06:ab:28:12:37:f8:9a:90:
         82:dc:54:f3:cc:ac:47:b9:fa:66:9c:78:f7:e1:e3:30:4a:54:
         58:b9:b8:cc:da:9c:25:05:bd:e2:14:4a:d0:c9:13:6a:82:92:
         0d:34:f5:5e:47:2c:5f:a1:fd:59:32:5e:38:04:7c:15:48:58:
         e3:b8:80:9a:00:30:b4:48:8e:d0:b2:bc:d7:8b:8b:20:6a:e0:
         39:f8:e8:65:e7:5a:c8:1f:71:8f:ab:41:c8:dd:42:76:b7:82:
         09:2f:ee:11:7c:c2:e8:83:2c:b5:4e:51:07:cb:da:ef:25:f3:
         ca:dd:c3:18:b7:f0:7e:0d:ef:73:cd:5f:ea:b8:a2:00:16:1b:
         65:81:b6:fe
-----BEGIN CERTIFICATE REQUEST-----
MIICvDCCAaQCAQAwNTELMAkGA1UEBhMCRlIxEjAQBgNVBAoMCU5vZGVPUENVQTES
MBAGA1UEAwwJTm9kZU9QQ1VBMIIBIjANBgkqhkiG9w0BAQEFAAOCAQ8AMIIBCgKC
AQEAxtgS67efMb4oV83ov8zteSA2I+YsLAM4B3tsFqO1ejFq3m6vzXR7e9HhNjEb
gQmVYZUJqgsfJiEHItgQjs8dG7nHjyFvoxCMKz4S+3Bf+O7dU0dkIzvG3PpeOU55
rPEhKz/4Y9yXS/qzfhjuRpQe5Ryc7zsKuDqG0/+USX4lxr5Oj7aUg+w+LxLSvtuv
/FQIAWm5yYUAj8qp6FZ+EXMyfB5s+6jB9T1Wt0DS0XjFX4vn+62ig7rg1X3K8wNs
YK2DxP+A/DXchl6kchnFb1v3TrjJcyhxGfcMxfaJWvIhMtylWabT0sCZZgtRoQG0
OEtYSzOBwZ5iXRKRYOQV4YTMdQIDAQABoEIwQAYJKoZIhvcNAQkOMTMwMTAJBgNV
HRMEAjAAMA4GA1UdDwEB/wQEAwIBBjAUBgNVHREEDTALhgl1bmRlZmluZWQwDQYJ
KoZIhvcNAQELBQADggEBAA3UYu8Tl2Y+xakX3mC3rqVe025O0vHYEU/ZqgIA733L
VcsZTiN66lfR2S3KJJMV+5r6jQVfkAWID4iO/gwArjnIysWMQ/lNKRKESQMG2pHP
I1uz+sFC8aIu57NiZBKdBthMDZCnGZb/JjVY8OqHrJGQVf7sR1QGqygSN/iakILc
VPPMrEe5+macePfh4zBKVFi5uMzanCUFveIUStDJE2qCkg009V5HLF+h/VkyXjgE
fBVIWOO4gJoAMLRIjtCyvNeLiyBq4Dn46GXnWsgfcY+rQcjdQna3ggkv7hF8wuiD
LLVOUQfL2u8l88rdwxi38H4N73PNX+q4ogAWG2WBtv4=
-----END CERTIFICATE REQUEST-----
