Certificate:
    Data:
        Version: 3 (0x2)
        Serial Number: 4099 (0x1003)
    Signature Algorithm: sha256WithRSAEncryption
        Issuer: O=NodeOPCUA, CN=NodeOPCUA
        Validity
            Not Before: Sep  3 10:44:36 2018 GMT
            Not After : Sep  3 10:44:36 2019 GMT
        Subject: O=NodeOPCUA, CN=NodeOPCUA
        Subject Public Key Info:
            Public Key Algorithm: rsaEncryption
                Public-Key: (2048 bit)
                Modulus:
                    00:c8:e9:fe:fb:8f:d9:46:08:fb:6a:87:23:77:2e:
                    d7:98:2f:5e:c1:f7:f8:58:e3:a0:00:41:23:49:60:
                    34:d1:e4:a5:7a:4a:88:f4:1e:da:e8:e5:45:73:f1:
                    52:fc:e0:16:3d:c4:93:df:95:a7:39:e1:1d:16:ba:
                    05:b0:13:7b:5f:4e:f7:02:60:ad:5a:2f:5d:78:47:
                    0a:7a:d5:51:a1:02:04:d7:6a:26:29:9c:30:56:39:
                    ec:09:cc:c6:df:c1:8d:09:ef:a9:93:e3:0e:4f:66:
                    23:b2:13:f7:af:83:ad:fe:06:bb:fb:f8:1e:49:d6:
                    e6:66:6e:44:86:26:c1:a9:9d:1c:cc:46:bd:49:48:
                    40:a9:42:10:67:1f:ea:73:c4:94:d5:72:a7:57:4f:
                    63:9c:fb:35:2b:ae:06:2b:27:7e:87:c9:4d:ef:c8:
                    ce:75:ee:21:6c:b9:f6:fd:df:67:1a:43:3a:72:b4:
                    e4:b6:9c:64:5b:54:c9:3b:43:20:a8:5c:58:66:69:
                    94:b9:d8:f7:fe:f7:ea:59:77:fa:61:0a:ba:09:89:
                    dc:92:2a:9f:23:9b:0d:a3:76:9c:ec:9e:b8:e2:ca:
                    9f:17:3c:46:ae:94:a7:9b:52:53:65:d9:db:e5:51:
                    ab:07:d3:a5:78:f8:6b:0d:94:12:b3:47:e9:ac:a7:
                    6e:27
                Exponent: 65537 (0x10001)
        X509v3 extensions:
            X509v3 Basic Constraints: critical
                CA:FALSE
            X509v3 Subject Key Identifier: 
                07:54:D2:6F:D2:51:2C:33:06:F2:01:18:7F:5D:46:0F:B1:B2:A1:30
            X509v3 Authority Key Identifier: 
                keyid:07:54:D2:6F:D2:51:2C:33:06:F2:01:18:7F:5D:46:0F:B1:B2:A1:30
                DirName:/O=NodeOPCUA/CN=NodeOPCUA
                serial:10:03

            X509v3 Subject Alternative Name: 
                URI:urn:NB5DSCR503191NB:NodeOPCUA-Client, DNS:localhost, DNS:NB5DSCR503191NB
            Netscape Comment: 
                OpenSSL Generated Certificate
            X509v3 Key Usage: critical
                Digital Signature, Non Repudiation, Key Encipherment, Data Encipherment, Key Agreement, Certificate Sign
            X509v3 Extended Key Usage: critical
                TLS Web Server Authentication, TLS Web Client Authentication
    Signature Algorithm: sha256WithRSAEncryption
         b7:3f:a6:bb:64:a0:10:5c:ed:48:e1:81:35:8d:9d:af:d9:6e:
         19:f7:05:31:5d:a7:2d:ac:cf:66:d7:ab:e2:c5:33:e0:b1:6d:
         17:8c:32:6c:7d:12:d2:74:ed:35:a8:f2:ff:c2:48:a0:b7:08:
         cb:f6:01:66:46:8b:e6:54:b6:49:90:fa:af:d1:e7:58:7c:7a:
         37:94:88:d0:fd:c4:34:d0:3f:c7:30:f0:dd:a5:3d:5f:40:2f:
         49:e9:72:e1:3c:5b:3d:36:e1:6e:a9:a6:10:f3:7a:50:50:ac:
         a0:5a:d5:b7:ce:53:1d:de:6d:73:00:1a:d4:5a:41:d8:95:21:
         81:4a:13:b7:2d:ba:f4:43:5a:c7:47:d5:c5:3f:db:ef:0e:a3:
         4b:e9:3a:ef:51:92:e7:9f:55:87:09:70:a1:37:c3:0a:8d:67:
         5e:a0:0e:70:3c:0f:01:b3:c2:2d:89:d1:3b:06:2d:24:8f:01:
         b2:0f:d0:ac:7b:9d:93:4e:3f:ce:df:17:2e:f8:9f:ef:fb:f4:
         2e:15:7d:b1:7d:22:72:af:99:a5:bb:ac:99:03:30:41:c2:9f:
         5d:31:32:d9:5c:b2:3e:d2:8e:21:39:90:3a:1a:49:c2:2c:c9:
         ea:9b:d3:87:86:31:29:72:d0:9c:ff:c2:d6:30:b7:5d:f9:86:
         d0:7c:6e:81
-----BEGIN CERTIFICATE-----
MIIEAzCCAuugAwIBAgICEAMwDQYJKoZIhvcNAQELBQAwKDESMBAGA1UEChMJTm9k
ZU9QQ1VBMRIwEAYDVQQDEwlOb2RlT1BDVUEwIhgPMjAxODA5MDMxMDQ0MzZaGA8y
MDE5MDkwMzEwNDQzNlowKDESMBAGA1UEChMJTm9kZU9QQ1VBMRIwEAYDVQQDEwlO
b2RlT1BDVUEwggEiMA0GCSqGSIb3DQEBAQUAA4IBDwAwggEKAoIBAQDI6f77j9lG
CPtqhyN3LteYL17B9/hY46AAQSNJYDTR5KV6Soj0Htro5UVz8VL84BY9xJPflac5
4R0WugWwE3tfTvcCYK1aL114Rwp61VGhAgTXaiYpnDBWOewJzMbfwY0J76mT4w5P
ZiOyE/evg63+Brv7+B5J1uZmbkSGJsGpnRzMRr1JSECpQhBnH+pzxJTVcqdXT2Oc
+zUrrgYrJ36HyU3vyM517iFsufb932caQzpytOS2nGRbVMk7QyCoXFhmaZS52Pf+
9+pZd/phCroJidySKp8jmw2jdpzsnrjiyp8XPEaulKebUlNl2dvlUasH06V4+GsN
lBKzR+msp24nAgMBAAGjggExMIIBLTAMBgNVHRMBAf8EAjAAMB0GA1UdDgQWBBQH
VNJv0lEsMwbyARh/XUYPsbKhMDBRBgNVHSMESjBIgBQHVNJv0lEsMwbyARh/XUYP
sbKhMKEspCowKDESMBAGA1UEChMJTm9kZU9QQ1VBMRIwEAYDVQQDEwlOb2RlT1BD
VUGCAhADMEsGA1UdEQREMEKGJHVybjpOQjVEU0NSNTAzMTkxTkI6Tm9kZU9QQ1VB
LUNsaWVudIIJbG9jYWxob3N0gg9OQjVEU0NSNTAzMTkxTkIwLAYJYIZIAYb4QgEN
BB8WHU9wZW5TU0wgR2VuZXJhdGVkIENlcnRpZmljYXRlMA4GA1UdDwEB/wQEAwIC
/DAgBgNVHSUBAf8EFjAUBggrBgEFBQcDAQYIKwYBBQUHAwIwDQYJKoZIhvcNAQEL
BQADggEBALc/prtkoBBc7UjhgTWNna/Zbhn3BTFdpy2sz2bXq+LFM+CxbReMMmx9
EtJ07TWo8v/CSKC3CMv2AWZGi+ZUtkmQ+q/R51h8ejeUiND9xDTQP8cw8N2lPV9A
L0npcuE8Wz024W6pphDzelBQrKBa1bfOUx3ebXMAGtRaQdiVIYFKE7ctuvRDWsdH
1cU/2+8Oo0vpOu9RkuefVYcJcKE3wwqNZ16gDnA8DwGzwi2J0TsGLSSPAbIP0Kx7
nZNOP87fFy74n+/79C4VfbF9InKvmaW7rJkDMEHCn10xMtlcsj7SjiE5kDoaScIs
yeqb04eGMSly0Jz/wtYwt135htB8boE=
-----END CERTIFICATE-----
