Certificate Request:
    Data:
        Version: 0 (0x0)
        Subject: C=FR, O=NodeOPCUA, CN=NodeOPCUA
        Subject Public Key Info:
            Public Key Algorithm: rsaEncryption
                Public-Key: (2048 bit)
                Modulus:
                    00:a6:34:f1:d2:df:b9:74:83:e8:66:dd:6f:52:f0:
                    5c:1a:6b:77:71:3b:1b:83:d0:5b:f2:2b:5a:a2:a9:
                    22:18:27:ab:7a:9f:b5:0d:5a:76:ef:b1:ee:4b:ba:
                    c7:b0:3e:28:0e:70:80:d2:1e:bb:66:04:66:54:76:
                    81:c6:c4:a0:fa:fe:71:54:76:91:82:f2:39:49:b7:
                    b7:70:1c:d3:74:4d:dc:f5:40:4a:94:88:6b:97:88:
                    a0:34:9d:25:d2:fd:5a:93:9d:48:84:26:28:c2:e7:
                    9e:ea:7c:25:6a:5d:2b:60:25:ad:69:b6:5e:ec:a0:
                    be:4b:c2:1e:02:82:9b:54:f4:4e:45:54:ae:7a:b1:
                    98:8c:12:f0:d1:5f:f6:23:4b:fa:cc:76:ce:1a:0c:
                    16:58:80:b3:bf:0d:f5:c2:79:73:28:c0:ff:8e:16:
                    0f:99:bc:16:1f:fa:c3:0f:d0:b4:95:25:94:fc:1c:
                    94:e8:14:cb:0c:ce:12:3e:9b:69:bc:66:9f:8a:4f:
                    0f:ca:14:ec:7c:30:4c:52:23:16:64:8a:97:27:4d:
                    dc:9d:39:1d:68:32:8b:74:31:a8:d6:ea:3d:c3:da:
                    33:54:84:68:bd:ba:96:ef:87:b0:43:58:ef:78:d9:
                    e6:7a:4c:a5:30:07:71:07:77:05:0a:18:8d:f2:a9:
                    b0:87
                Exponent: 65537 (0x10001)
        Attributes:
        Requested Extensions:
            X509v3 Basic Constraints: 
                CA:FALSE
            X509v3 Key Usage: critical
                Certificate Sign, CRL Sign
            X509v3 Subject Alternative Name: 
                URI:undefined
    Signature Algorithm: sha256WithRSAEncryption
         52:8b:d0:f8:d6:e7:18:41:d0:4e:8b:a8:33:d7:2b:13:d4:51:
         e8:b4:4e:4e:1e:f7:6e:fc:e7:b8:7e:cb:41:a2:a0:30:f1:3b:
         a1:4a:1c:d9:7a:82:fc:ee:e9:72:2b:d9:10:5b:37:70:38:ed:
         9c:cf:ff:82:f6:79:ed:4b:ee:f0:6e:c2:44:7d:a6:d9:63:c7:
         4d:78:2c:26:14:7b:49:b5:d2:06:3a:df:f2:e9:0a:ee:72:06:
         ad:31:09:f0:21:09:72:72:62:9a:d5:54:ee:1d:1c:f5:f7:26:
         56:5b:4e:fd:ca:06:09:1e:f9:56:2f:98:d4:49:9d:96:58:9b:
         27:5b:dc:33:85:40:10:21:08:fd:96:e5:7b:d6:55:d7:f4:cb:
         eb:86:e4:af:e4:dd:1f:3b:b0:f4:2c:85:22:47:d6:04:44:3c:
         5c:ab:8e:b4:1d:95:91:f7:f5:94:19:d1:dd:05:d2:ec:e6:8b:
         35:5a:93:cc:87:7a:cb:83:03:00:9e:84:5c:e8:dd:06:df:19:
         2a:cc:25:78:47:ac:c3:9a:c1:7d:2d:ac:95:07:5e:0c:71:3f:
         5a:47:bf:3c:5f:77:59:15:68:5b:aa:1c:c9:98:3f:db:f8:e9:
         54:f3:a2:bd:9f:b9:80:a1:75:72:4b:15:82:4e:cf:57:a1:73:
         6b:77:ed:87
-----BEGIN CERTIFICATE REQUEST-----
MIICvDCCAaQCAQAwNTELMAkGA1UEBhMCRlIxEjAQBgNVBAoMCU5vZGVPUENVQTES
MBAGA1UEAwwJTm9kZU9QQ1VBMIIBIjANBgkqhkiG9w0BAQEFAAOCAQ8AMIIBCgKC
AQEApjTx0t+5dIPoZt1vUvBcGmt3cTsbg9Bb8itaoqkiGCerep+1DVp277HuS7rH
sD4oDnCA0h67ZgRmVHaBxsSg+v5xVHaRgvI5Sbe3cBzTdE3c9UBKlIhrl4igNJ0l
0v1ak51IhCYowuee6nwlal0rYCWtabZe7KC+S8IeAoKbVPRORVSuerGYjBLw0V/2
I0v6zHbOGgwWWICzvw31wnlzKMD/jhYPmbwWH/rDD9C0lSWU/ByU6BTLDM4SPptp
vGafik8PyhTsfDBMUiMWZIqXJ03cnTkdaDKLdDGo1uo9w9ozVIRovbqW74ewQ1jv
eNnmekylMAdxB3cFChiN8qmwhwIDAQABoEIwQAYJKoZIhvcNAQkOMTMwMTAJBgNV
HRMEAjAAMA4GA1UdDwEB/wQEAwIBBjAUBgNVHREEDTALhgl1bmRlZmluZWQwDQYJ
KoZIhvcNAQELBQADggEBAFKL0PjW5xhB0E6LqDPXKxPUUei0Tk4e927857h+y0Gi
oDDxO6FKHNl6gvzu6XIr2RBbN3A47ZzP/4L2ee1L7vBuwkR9ptljx014LCYUe0m1
0gY63/LpCu5yBq0xCfAhCXJyYprVVO4dHPX3JlZbTv3KBgke+VYvmNRJnZZYmydb
3DOFQBAhCP2W5XvWVdf0y+uG5K/k3R87sPQshSJH1gREPFyrjrQdlZH39ZQZ0d0F
0uzmizVak8yHesuDAwCehFzo3QbfGSrMJXhHrMOawX0trJUHXgxxP1pHvzxfd1kV
aFuqHMmYP9v46VTzor2fuYChdXJLFYJOz1ehc2t37Yc=
-----END CERTIFICATE REQUEST-----
