Certificate Request:
    Data:
        Version: 0 (0x0)
        Subject: C=FR, O=NodeOPCUA, CN=NodeOPCUA
        Subject Public Key Info:
            Public Key Algorithm: rsaEncryption
                Public-Key: (1024 bit)
                Modulus:
                    00:df:a8:6d:c3:d5:73:80:c0:88:27:7d:84:b3:5c:
                    86:d2:9f:09:50:2e:01:67:ab:f0:2a:e6:2a:80:80:
                    e0:5d:be:df:94:6d:6e:d2:6a:02:77:b5:5d:1f:c8:
                    d6:a2:4a:a6:84:3c:2f:2d:1f:ce:6d:f5:81:a3:8b:
                    f6:87:c6:c6:d1:c6:78:02:38:c7:bb:67:bd:b9:ac:
                    84:c6:ce:da:1f:0a:af:cb:b5:80:59:7f:bb:8d:ff:
                    1d:06:95:63:49:73:86:7b:21:93:1e:e4:f0:cb:90:
                    ab:e9:7c:61:aa:b0:d2:29:89:a5:39:8e:18:a4:d4:
                    cc:da:28:3e:e5:92:c5:cd:65
                Exponent: 65537 (0x10001)
        Attributes:
        Requested Extensions:
            X509v3 Basic Constraints: 
                CA:FALSE
            X509v3 Key Usage: critical
                Certificate Sign, CRL Sign
            X509v3 Subject Alternative Name: 
                URI:undefined
    Signature Algorithm: sha256WithRSAEncryption
         c4:5a:94:bc:30:8f:00:d7:45:c7:06:63:78:7b:54:9a:f3:62:
         29:d2:6b:fb:d2:c0:7c:98:e0:9b:05:60:77:df:ee:97:5c:c1:
         58:ac:2a:e9:62:39:3f:e6:e3:5b:63:bf:ec:81:ec:1f:8e:18:
         df:4c:20:24:2a:b6:cd:de:8e:88:2e:40:9f:3f:c7:2c:8b:2c:
         63:3b:cc:aa:83:b9:8a:c9:e5:a3:6b:22:5b:24:66:c1:99:df:
         8c:9f:80:69:95:7f:98:ed:ea:45:71:c6:f2:a3:2e:aa:2f:29:
         5f:74:95:95:02:a3:27:6d:2d:a4:f2:74:12:a0:52:d0:89:47:
         7a:ca
-----BEGIN CERTIFICATE REQUEST-----
MIIBtzCCASACAQAwNTELMAkGA1UEBhMCRlIxEjAQBgNVBAoMCU5vZGVPUENVQTES
MBAGA1UEAwwJTm9kZU9QQ1VBMIGfMA0GCSqGSIb3DQEBAQUAA4GNADCBiQKBgQDf
qG3D1XOAwIgnfYSzXIbSnwlQLgFnq/Aq5iqAgOBdvt+UbW7SagJ3tV0fyNaiSqaE
PC8tH85t9YGji/aHxsbRxngCOMe7Z725rITGztofCq/LtYBZf7uN/x0GlWNJc4Z7
IZMe5PDLkKvpfGGqsNIpiaU5jhik1MzaKD7lksXNZQIDAQABoEIwQAYJKoZIhvcN
AQkOMTMwMTAJBgNVHRMEAjAAMA4GA1UdDwEB/wQEAwIBBjAUBgNVHREEDTALhgl1
bmRlZmluZWQwDQYJKoZIhvcNAQELBQADgYEAxFqUvDCPANdFxwZjeHtUmvNiKdJr
+9LAfJjgmwVgd9/ul1zBWKwq6WI5P+bjW2O/7IHsH44Y30wgJCq2zd6OiC5Anz/H
LIssYzvMqoO5isnlo2siWyRmwZnfjJ+AaZV/mO3qRXHG8qMuqi8pX3SVlQKjJ20t
pPJ0EqBS0IlHeso=
-----END CERTIFICATE REQUEST-----
