Certificate Request:
    Data:
        Version: 0 (0x0)
        Subject: C=FR, O=NodeOPCUA, CN=NodeOPCUA
        Subject Public Key Info:
            Public Key Algorithm: rsaEncryption
                Public-Key: (1024 bit)
                Modulus:
                    00:bd:cd:b2:c7:e6:40:94:e2:a0:f2:ba:00:c3:db:
                    23:86:84:15:84:bd:21:88:7c:60:f3:eb:93:25:a4:
                    b8:9b:04:54:d1:7e:41:c4:9a:7a:6a:d4:4a:4d:01:
                    3d:34:c4:86:04:5c:81:b0:31:1c:d8:53:d2:90:32:
                    99:cc:f1:d9:0b:32:f2:4e:91:23:91:ec:3d:f6:8a:
                    57:b8:be:c5:5a:42:23:7f:c1:0b:78:07:09:84:ca:
                    15:33:d1:34:3c:62:31:df:b6:80:56:76:0f:3b:a5:
                    3f:83:9b:7c:2b:fc:20:be:4b:37:e9:d0:9b:ee:b9:
                    de:8e:43:e9:2e:5e:9d:ed:d1
                Exponent: 65537 (0x10001)
        Attributes:
        Requested Extensions:
            X509v3 Basic Constraints: 
                CA:FALSE
            X509v3 Key Usage: critical
                Certificate Sign, CRL Sign
            X509v3 Subject Alternative Name: 
                URI:undefined
    Signature Algorithm: sha256WithRSAEncryption
         13:e0:43:ad:88:9e:1d:82:10:d6:ea:5c:eb:38:44:c9:73:6b:
         21:e4:65:2b:a5:37:20:54:db:10:03:59:16:bc:3f:a6:0d:dc:
         5a:22:df:9c:a2:60:24:fd:d9:57:fb:7a:ba:a8:77:48:ac:7e:
         42:4d:7c:ae:ba:ca:0a:83:4c:d8:e8:59:c2:77:8d:06:c5:58:
         e6:a5:c6:b2:09:13:6e:bb:7b:8a:be:51:45:db:8a:46:4f:52:
         4e:e3:90:91:fb:50:1c:dd:2f:35:15:7c:9d:78:f5:62:c6:c3:
         29:de:c0:4a:ed:89:fc:aa:e1:bb:60:ed:ff:c5:93:09:76:0f:
         54:89
-----BEGIN CERTIFICATE REQUEST-----
MIIBtzCCASACAQAwNTELMAkGA1UEBhMCRlIxEjAQBgNVBAoMCU5vZGVPUENVQTES
MBAGA1UEAwwJTm9kZU9QQ1VBMIGfMA0GCSqGSIb3DQEBAQUAA4GNADCBiQKBgQC9
zbLH5kCU4qDyugDD2yOGhBWEvSGIfGDz65MlpLibBFTRfkHEmnpq1EpNAT00xIYE
XIGwMRzYU9KQMpnM8dkLMvJOkSOR7D32ile4vsVaQiN/wQt4BwmEyhUz0TQ8YjHf
toBWdg87pT+Dm3wr/CC+Szfp0Jvuud6OQ+kuXp3t0QIDAQABoEIwQAYJKoZIhvcN
AQkOMTMwMTAJBgNVHRMEAjAAMA4GA1UdDwEB/wQEAwIBBjAUBgNVHREEDTALhgl1
bmRlZmluZWQwDQYJKoZIhvcNAQELBQADgYEAE+BDrYieHYIQ1upc6zhEyXNrIeRl
K6U3IFTbEANZFrw/pg3cWiLfnKJgJP3ZV/t6uqh3SKx+Qk18rrrKCoNM2OhZwneN
BsVY5qXGsgkTbrt7ir5RRduKRk9STuOQkftQHN0vNRV8nXj1YsbDKd7ASu2J/Krh
u2Dt/8WTCXYPVIk=
-----END CERTIFICATE REQUEST-----
