Certificate Request:
    Data:
        Version: 0 (0x0)
        Subject: C=FR, O=NodeOPCUA, CN=NodeOPCUA
        Subject Public Key Info:
            Public Key Algorithm: rsaEncryption
                Public-Key: (2048 bit)
                Modulus:
                    00:c6:57:83:cc:99:1d:42:da:ca:e4:54:9f:26:2e:
                    33:29:8a:a7:a1:16:61:60:5d:04:e7:a9:ef:21:8e:
                    47:41:d7:1c:dc:f7:aa:8e:a7:31:b0:e7:65:80:6f:
                    98:dc:48:b2:7b:a2:b9:85:9f:53:ab:10:49:97:47:
                    01:69:3e:49:b5:50:44:ef:51:cb:86:a9:50:8c:c2:
                    ee:d6:d3:6a:7b:c8:8e:23:39:5e:5d:84:e6:02:09:
                    2f:6b:02:0e:f9:f2:61:97:88:46:e7:a1:ba:d0:10:
                    7e:83:05:3e:60:96:a9:51:68:cb:54:0e:9b:eb:09:
                    34:51:bd:84:86:6a:b4:94:bc:cd:53:89:59:be:76:
                    e9:a3:15:18:e6:e8:57:aa:f2:f4:09:5d:0a:ce:1b:
                    07:68:e3:3a:45:7a:e3:7c:c6:b2:cb:d0:e4:0e:75:
                    3e:1c:45:3e:86:4d:db:56:9d:46:ba:63:8f:cc:b5:
                    d1:31:be:b1:24:76:59:ef:3c:62:72:3c:ea:85:aa:
                    7a:db:6b:63:12:30:f3:fa:cb:cd:87:98:77:c1:58:
                    7f:c3:35:d8:4c:a6:12:93:98:7b:4d:aa:c2:2d:ea:
                    e0:7c:cd:ef:a1:20:98:d5:20:51:73:67:75:89:34:
                    fe:8c:35:36:a4:86:7c:e3:4b:4e:2e:e1:da:6a:02:
                    f5:53
                Exponent: 65537 (0x10001)
        Attributes:
        Requested Extensions:
            X509v3 Basic Constraints: 
                CA:FALSE
            X509v3 Key Usage: critical
                Certificate Sign, CRL Sign
            X509v3 Subject Alternative Name: 
                URI:undefined
    Signature Algorithm: sha256WithRSAEncryption
         78:f4:5b:56:33:eb:52:fc:5e:2f:e2:ee:0b:43:4f:0a:1c:bd:
         9d:bb:cc:d2:51:1b:db:65:48:0b:d5:59:bb:7c:92:8a:f1:a4:
         08:6c:fd:2e:9c:d2:b2:43:6b:e2:98:0b:80:d8:d7:62:79:df:
         f2:90:ca:e0:95:fb:48:43:8f:0b:25:27:56:0d:47:e4:27:47:
         9e:dc:13:bb:99:af:ba:e2:ed:d8:0a:78:ac:4c:93:0f:27:4e:
         25:5b:06:91:4b:0c:f2:44:63:22:f3:9c:6f:53:d7:53:81:76:
         9c:42:b7:90:bb:f9:0b:1b:80:90:3d:41:4a:70:75:68:91:af:
         3f:44:c1:7d:59:a8:1d:49:0d:18:68:01:8a:74:6c:31:7a:ac:
         79:01:d1:7e:54:3b:50:75:ef:09:65:4b:80:9e:6f:42:30:29:
         da:12:f1:5b:e0:e6:8e:59:7f:b0:1c:a9:b7:ad:33:68:3d:1c:
         d8:f2:64:1b:2e:aa:40:64:23:e8:21:fa:1a:6a:80:aa:58:8f:
         41:4f:ca:e3:18:e2:a5:ca:69:fb:1d:07:61:c9:74:18:9c:7e:
         f1:d3:56:76:31:d0:97:0d:e4:e0:32:a9:38:22:d3:ac:32:13:
         4d:0e:64:69:c1:b6:af:0e:0f:09:69:82:ab:2d:38:3e:38:31:
         1f:65:21:11
-----BEGIN CERTIFICATE REQUEST-----
MIICvDCCAaQCAQAwNTELMAkGA1UEBhMCRlIxEjAQBgNVBAoMCU5vZGVPUENVQTES
MBAGA1UEAwwJTm9kZU9QQ1VBMIIBIjANBgkqhkiG9w0BAQEFAAOCAQ8AMIIBCgKC
AQEAxleDzJkdQtrK5FSfJi4zKYqnoRZhYF0E56nvIY5HQdcc3PeqjqcxsOdlgG+Y
3Eiye6K5hZ9TqxBJl0cBaT5JtVBE71HLhqlQjMLu1tNqe8iOIzleXYTmAgkvawIO
+fJhl4hG56G60BB+gwU+YJapUWjLVA6b6wk0Ub2Ehmq0lLzNU4lZvnbpoxUY5uhX
qvL0CV0KzhsHaOM6RXrjfMayy9DkDnU+HEU+hk3bVp1GumOPzLXRMb6xJHZZ7zxi
cjzqhap622tjEjDz+svNh5h3wVh/wzXYTKYSk5h7TarCLergfM3voSCY1SBRc2d1
iTT+jDU2pIZ840tOLuHaagL1UwIDAQABoEIwQAYJKoZIhvcNAQkOMTMwMTAJBgNV
HRMEAjAAMA4GA1UdDwEB/wQEAwIBBjAUBgNVHREEDTALhgl1bmRlZmluZWQwDQYJ
KoZIhvcNAQELBQADggEBAHj0W1Yz61L8Xi/i7gtDTwocvZ27zNJRG9tlSAvVWbt8
korxpAhs/S6c0rJDa+KYC4DY12J53/KQyuCV+0hDjwslJ1YNR+QnR57cE7uZr7ri
7dgKeKxMkw8nTiVbBpFLDPJEYyLznG9T11OBdpxCt5C7+QsbgJA9QUpwdWiRrz9E
wX1ZqB1JDRhoAYp0bDF6rHkB0X5UO1B17wllS4Ceb0IwKdoS8Vvg5o5Zf7Acqbet
M2g9HNjyZBsuqkBkI+gh+hpqgKpYj0FPyuMY4qXKafsdB2HJdBicfvHTVnYx0JcN
5OAyqTgi06wyE00OZGnBtq8ODwlpgqstOD44MR9lIRE=
-----END CERTIFICATE REQUEST-----
