Certificate:
    Data:
        Version: 3 (0x2)
        Serial Number: 4105 (0x1009)
    Signature Algorithm: sha256WithRSAEncryption
        Issuer: O=NodeOPCUA, CN=NodeOPCUA
        Validity
            Not Before: Sep  3 10:44:36 2018 GMT
            Not After : Sep  3 10:44:36 2019 GMT
        Subject: O=NodeOPCUA, CN=NodeOPCUA
        Subject Public Key Info:
            Public Key Algorithm: rsaEncryption
                Public-Key: (1024 bit)
                Modulus:
                    00:bd:cd:b2:c7:e6:40:94:e2:a0:f2:ba:00:c3:db:
                    23:86:84:15:84:bd:21:88:7c:60:f3:eb:93:25:a4:
                    b8:9b:04:54:d1:7e:41:c4:9a:7a:6a:d4:4a:4d:01:
                    3d:34:c4:86:04:5c:81:b0:31:1c:d8:53:d2:90:32:
                    99:cc:f1:d9:0b:32:f2:4e:91:23:91:ec:3d:f6:8a:
                    57:b8:be:c5:5a:42:23:7f:c1:0b:78:07:09:84:ca:
                    15:33:d1:34:3c:62:31:df:b6:80:56:76:0f:3b:a5:
                    3f:83:9b:7c:2b:fc:20:be:4b:37:e9:d0:9b:ee:b9:
                    de:8e:43:e9:2e:5e:9d:ed:d1
                Exponent: 65537 (0x10001)
        X509v3 extensions:
            X509v3 Basic Constraints: critical
                CA:FALSE
            X509v3 Subject Key Identifier: 
                66:F4:6B:91:35:71:FE:64:26:08:E6:06:7D:D2:EA:7D:83:89:97:AE
            X509v3 Authority Key Identifier: 
                keyid:66:F4:6B:91:35:71:FE:64:26:08:E6:06:7D:D2:EA:7D:83:89:97:AE
                DirName:/O=NodeOPCUA/CN=NodeOPCUA
                serial:10:09

            X509v3 Subject Alternative Name: 
                URI:urn:NB5DSCR503191NB:NodeOPCUA-DiscoveryServer, DNS:localhost, DNS:NB5DSCR503191NB
            Netscape Comment: 
                OpenSSL Generated Certificate
            X509v3 Key Usage: critical
                Digital Signature, Non Repudiation, Key Encipherment, Data Encipherment, Key Agreement, Certificate Sign
            X509v3 Extended Key Usage: critical
                TLS Web Server Authentication, TLS Web Client Authentication
    Signature Algorithm: sha256WithRSAEncryption
         68:36:8a:5c:53:71:e4:e1:85:58:ba:d6:02:9b:48:06:e1:71:
         04:11:cd:e4:86:cc:03:80:e1:79:5b:6a:11:73:03:87:99:2c:
         83:2b:ba:80:e4:35:a6:31:32:ed:eb:c8:4a:73:64:c1:05:7b:
         04:c4:6a:17:38:d2:0e:87:a5:c8:88:2c:27:2a:cb:ab:b5:ac:
         c7:d6:a3:a9:b7:82:5f:c3:90:21:ed:76:c2:02:31:b0:8d:7c:
         3d:6f:dd:54:9f:0f:b1:c6:59:65:b9:ff:f1:d1:79:65:91:45:
         f1:7a:16:d4:7e:8d:94:84:c0:13:fa:47:e0:6f:26:e7:10:6f:
         1e:7a
-----BEGIN CERTIFICATE-----
MIIDBzCCAnCgAwIBAgICEAkwDQYJKoZIhvcNAQELBQAwKDESMBAGA1UEChMJTm9k
ZU9QQ1VBMRIwEAYDVQQDEwlOb2RlT1BDVUEwIhgPMjAxODA5MDMxMDQ0MzZaGA8y
MDE5MDkwMzEwNDQzNlowKDESMBAGA1UEChMJTm9kZU9QQ1VBMRIwEAYDVQQDEwlO
b2RlT1BDVUEwgZ8wDQYJKoZIhvcNAQEBBQADgY0AMIGJAoGBAL3NssfmQJTioPK6
AMPbI4aEFYS9IYh8YPPrkyWkuJsEVNF+QcSaemrUSk0BPTTEhgRcgbAxHNhT0pAy
mczx2Qsy8k6RI5HsPfaKV7i+xVpCI3/BC3gHCYTKFTPRNDxiMd+2gFZ2DzulP4Ob
fCv8IL5LN+nQm+653o5D6S5ene3RAgMBAAGjggE6MIIBNjAMBgNVHRMBAf8EAjAA
MB0GA1UdDgQWBBRm9GuRNXH+ZCYI5gZ90up9g4mXrjBRBgNVHSMESjBIgBRm9GuR
NXH+ZCYI5gZ90up9g4mXrqEspCowKDESMBAGA1UEChMJTm9kZU9QQ1VBMRIwEAYD
VQQDEwlOb2RlT1BDVUGCAhAJMFQGA1UdEQRNMEuGLXVybjpOQjVEU0NSNTAzMTkx
TkI6Tm9kZU9QQ1VBLURpc2NvdmVyeVNlcnZlcoIJbG9jYWxob3N0gg9OQjVEU0NS
NTAzMTkxTkIwLAYJYIZIAYb4QgENBB8WHU9wZW5TU0wgR2VuZXJhdGVkIENlcnRp
ZmljYXRlMA4GA1UdDwEB/wQEAwIC/DAgBgNVHSUBAf8EFjAUBggrBgEFBQcDAQYI
KwYBBQUHAwIwDQYJKoZIhvcNAQELBQADgYEAaDaKXFNx5OGFWLrWAptIBuFxBBHN
5IbMA4DheVtqEXMDh5ksgyu6gOQ1pjEy7evISnNkwQV7BMRqFzjSDoelyIgsJyrL
q7Wsx9ajqbeCX8OQIe12wgIxsI18PW/dVJ8PscZZZbn/8dF5ZZFF8XoW1H6NlITA
E/pH4G8m5xBvHno=
-----END CERTIFICATE-----
