Certificate:
    Data:
        Version: 3 (0x2)
        Serial Number: 4107 (0x100b)
    Signature Algorithm: sha256WithRSAEncryption
        Issuer: O=NodeOPCUA, CN=NodeOPCUA
        Validity
            Not Before: Aug 30 09:25:25 2017 GMT
            Not After : Aug 30 09:25:25 2018 GMT
        Subject: O=NodeOPCUA, CN=NodeOPCUA
        Subject Public Key Info:
            Public Key Algorithm: rsaEncryption
                Public-Key: (2048 bit)
                Modulus:
                    00:c6:57:83:cc:99:1d:42:da:ca:e4:54:9f:26:2e:
                    33:29:8a:a7:a1:16:61:60:5d:04:e7:a9:ef:21:8e:
                    47:41:d7:1c:dc:f7:aa:8e:a7:31:b0:e7:65:80:6f:
                    98:dc:48:b2:7b:a2:b9:85:9f:53:ab:10:49:97:47:
                    01:69:3e:49:b5:50:44:ef:51:cb:86:a9:50:8c:c2:
                    ee:d6:d3:6a:7b:c8:8e:23:39:5e:5d:84:e6:02:09:
                    2f:6b:02:0e:f9:f2:61:97:88:46:e7:a1:ba:d0:10:
                    7e:83:05:3e:60:96:a9:51:68:cb:54:0e:9b:eb:09:
                    34:51:bd:84:86:6a:b4:94:bc:cd:53:89:59:be:76:
                    e9:a3:15:18:e6:e8:57:aa:f2:f4:09:5d:0a:ce:1b:
                    07:68:e3:3a:45:7a:e3:7c:c6:b2:cb:d0:e4:0e:75:
                    3e:1c:45:3e:86:4d:db:56:9d:46:ba:63:8f:cc:b5:
                    d1:31:be:b1:24:76:59:ef:3c:62:72:3c:ea:85:aa:
                    7a:db:6b:63:12:30:f3:fa:cb:cd:87:98:77:c1:58:
                    7f:c3:35:d8:4c:a6:12:93:98:7b:4d:aa:c2:2d:ea:
                    e0:7c:cd:ef:a1:20:98:d5:20:51:73:67:75:89:34:
                    fe:8c:35:36:a4:86:7c:e3:4b:4e:2e:e1:da:6a:02:
                    f5:53
                Exponent: 65537 (0x10001)
        X509v3 extensions:
            X509v3 Basic Constraints: critical
                CA:FALSE
            X509v3 Subject Key Identifier: 
                ED:89:CD:4F:C4:A0:F8:2C:02:C7:85:D8:2A:4A:29:81:7A:DF:E8:EC
            X509v3 Authority Key Identifier: 
                keyid:ED:89:CD:4F:C4:A0:F8:2C:02:C7:85:D8:2A:4A:29:81:7A:DF:E8:EC
                DirName:/O=NodeOPCUA/CN=NodeOPCUA
                serial:10:0B

            X509v3 Subject Alternative Name: 
                URI:urn:MUCKI:NodeOPCUA-DiscoveryServer, DNS:localhost, DNS:MUCKI
            Netscape Comment: 
                OpenSSL Generated Certificate
            X509v3 Key Usage: critical
                Digital Signature, Non Repudiation, Key Encipherment, Data Encipherment, Key Agreement, Certificate Sign
            X509v3 Extended Key Usage: critical
                TLS Web Server Authentication, TLS Web Client Authentication
    Signature Algorithm: sha256WithRSAEncryption
         2b:9b:1c:ed:64:b6:cd:8c:55:71:83:b7:28:86:e4:e2:68:92:
         08:8c:c0:87:06:c8:f7:22:1f:c1:1f:ec:b2:9f:dc:97:5c:70:
         15:c4:d3:60:0a:b1:74:85:98:06:0d:3b:79:96:05:64:1f:05:
         61:17:4e:f8:85:72:c3:9c:64:9c:85:6b:c4:8a:01:33:15:34:
         b6:e3:f4:45:c4:b5:89:db:12:3c:ec:6c:30:fd:bc:61:f1:87:
         98:f6:d7:d5:af:ff:28:6f:26:12:01:d8:90:68:60:7c:af:26:
         3e:38:8f:59:0e:6b:32:5f:c4:38:97:d3:ca:df:04:8c:21:66:
         4d:b6:9f:2d:e6:e0:ab:43:a4:80:2c:f6:36:91:4e:29:c5:a8:
         97:4e:e8:ed:e9:cc:bd:69:1b:f7:f3:04:26:c7:1d:96:1d:58:
         21:3a:b0:ee:a0:ab:f6:54:59:96:46:43:0e:5c:24:1a:63:5e:
         3d:e1:8a:52:19:5d:8b:4b:9b:e4:5e:d4:fb:11:03:be:a4:61:
         2e:1f:2a:8d:cc:bb:50:08:47:f5:b8:69:15:2e:d7:60:ae:b0:
         1e:0d:c4:af:a5:52:e8:1d:a6:a1:31:7b:e5:ed:6b:06:c5:ce:
         7f:83:9d:af:21:84:5a:94:2c:98:2f:cc:74:45:60:18:cf:08:
         f5:e4:6b:b6
-----BEGIN CERTIFICATE-----
MIID+DCCAuCgAwIBAgICEAswDQYJKoZIhvcNAQELBQAwKDESMBAGA1UEChMJTm9k
ZU9QQ1VBMRIwEAYDVQQDEwlOb2RlT1BDVUEwIhgPMjAxNzA4MzAwOTI1MjVaGA8y
MDE4MDgzMDA5MjUyNVowKDESMBAGA1UEChMJTm9kZU9QQ1VBMRIwEAYDVQQDEwlO
b2RlT1BDVUEwggEiMA0GCSqGSIb3DQEBAQUAA4IBDwAwggEKAoIBAQDGV4PMmR1C
2srkVJ8mLjMpiqehFmFgXQTnqe8hjkdB1xzc96qOpzGw52WAb5jcSLJ7ormFn1Or
EEmXRwFpPkm1UETvUcuGqVCMwu7W02p7yI4jOV5dhOYCCS9rAg758mGXiEbnobrQ
EH6DBT5glqlRaMtUDpvrCTRRvYSGarSUvM1TiVm+dumjFRjm6Feq8vQJXQrOGwdo
4zpFeuN8xrLL0OQOdT4cRT6GTdtWnUa6Y4/MtdExvrEkdlnvPGJyPOqFqnrba2MS
MPP6y82HmHfBWH/DNdhMphKTmHtNqsIt6uB8ze+hIJjVIFFzZ3WJNP6MNTakhnzj
S04u4dpqAvVTAgMBAAGjggEmMIIBIjAMBgNVHRMBAf8EAjAAMB0GA1UdDgQWBBTt
ic1PxKD4LALHhdgqSimBet/o7DBRBgNVHSMESjBIgBTtic1PxKD4LALHhdgqSimB
et/o7KEspCowKDESMBAGA1UEChMJTm9kZU9QQ1VBMRIwEAYDVQQDEwlOb2RlT1BD
VUGCAhALMEAGA1UdEQQ5MDeGI3VybjpNVUNLSTpOb2RlT1BDVUEtRGlzY292ZXJ5
U2VydmVygglsb2NhbGhvc3SCBU1VQ0tJMCwGCWCGSAGG+EIBDQQfFh1PcGVuU1NM
IEdlbmVyYXRlZCBDZXJ0aWZpY2F0ZTAOBgNVHQ8BAf8EBAMCAvwwIAYDVR0lAQH/
BBYwFAYIKwYBBQUHAwEGCCsGAQUFBwMCMA0GCSqGSIb3DQEBCwUAA4IBAQArmxzt
ZLbNjFVxg7cohuTiaJIIjMCHBsj3Ih/BH+yyn9yXXHAVxNNgCrF0hZgGDTt5lgVk
HwVhF074hXLDnGSchWvEigEzFTS24/RFxLWJ2xI87Gww/bxh8YeY9tfVr/8obyYS
AdiQaGB8ryY+OI9ZDmsyX8Q4l9PK3wSMIWZNtp8t5uCrQ6SALPY2kU4pxaiXTujt
6cy9aRv38wQmxx2WHVghOrDuoKv2VFmWRkMOXCQaY1494YpSGV2LS5vkXtT7EQO+
pGEuHyqNzLtQCEf1uGkVLtdgrrAeDcSvpVLoHaahMXvl7WsGxc5/g52vIYRalCyY
L8x0RWAYzwj15Gu2
-----END CERTIFICATE-----
