Certificate:
    Data:
        Version: 3 (0x2)
        Serial Number: 4106 (0x100a)
    Signature Algorithm: sha256WithRSAEncryption
        Issuer: C=FR, ST=IDF, L=Paris, O=Local NODE-OPCUA Certificate Authority, CN=NodeOPCUA-CA
        Validity
            Not Before: Aug 30 09:25:25 2017 GMT
            Not After : Aug 30 09:25:25 2018 GMT
        Subject: C=FR, O=NodeOPCUA, CN=NodeOPCUA
        Subject Public Key Info:
            Public Key Algorithm: rsaEncryption
                Public-Key: (2048 bit)
                Modulus:
                    00:c6:57:83:cc:99:1d:42:da:ca:e4:54:9f:26:2e:
                    33:29:8a:a7:a1:16:61:60:5d:04:e7:a9:ef:21:8e:
                    47:41:d7:1c:dc:f7:aa:8e:a7:31:b0:e7:65:80:6f:
                    98:dc:48:b2:7b:a2:b9:85:9f:53:ab:10:49:97:47:
                    01:69:3e:49:b5:50:44:ef:51:cb:86:a9:50:8c:c2:
                    ee:d6:d3:6a:7b:c8:8e:23:39:5e:5d:84:e6:02:09:
                    2f:6b:02:0e:f9:f2:61:97:88:46:e7:a1:ba:d0:10:
                    7e:83:05:3e:60:96:a9:51:68:cb:54:0e:9b:eb:09:
                    34:51:bd:84:86:6a:b4:94:bc:cd:53:89:59:be:76:
                    e9:a3:15:18:e6:e8:57:aa:f2:f4:09:5d:0a:ce:1b:
                    07:68:e3:3a:45:7a:e3:7c:c6:b2:cb:d0:e4:0e:75:
                    3e:1c:45:3e:86:4d:db:56:9d:46:ba:63:8f:cc:b5:
                    d1:31:be:b1:24:76:59:ef:3c:62:72:3c:ea:85:aa:
                    7a:db:6b:63:12:30:f3:fa:cb:cd:87:98:77:c1:58:
                    7f:c3:35:d8:4c:a6:12:93:98:7b:4d:aa:c2:2d:ea:
                    e0:7c:cd:ef:a1:20:98:d5:20:51:73:67:75:89:34:
                    fe:8c:35:36:a4:86:7c:e3:4b:4e:2e:e1:da:6a:02:
                    f5:53
                Exponent: 65537 (0x10001)
        X509v3 extensions:
            X509v3 Basic Constraints: critical
                CA:FALSE
            X509v3 Subject Key Identifier: 
                ED:89:CD:4F:C4:A0:F8:2C:02:C7:85:D8:2A:4A:29:81:7A:DF:E8:EC
            X509v3 Authority Key Identifier: 
                keyid:84:FF:9C:93:B1:D0:E8:CE:A2:B6:D0:C9:6C:1E:04:B4:6E:43:47:DF
                DirName:/C=FR/ST=IDF/L=Paris/O=Local NODE-OPCUA Certificate Authority/CN=NodeOPCUA-CA
                serial:8D:7E:27:B2:25:30:DA:6F

            X509v3 Subject Alternative Name: 
                URI:urn:MUCKI:NodeOPCUA-DiscoveryServer, DNS:localhost, DNS:MUCKI
            Netscape Comment: 
                OpenSSL Generated Certificate
            X509v3 Key Usage: critical
                Digital Signature, Non Repudiation, Key Encipherment, Data Encipherment, Key Agreement, Certificate Sign
            X509v3 Extended Key Usage: critical
                TLS Web Server Authentication, TLS Web Client Authentication
    Signature Algorithm: sha256WithRSAEncryption
         b6:f8:77:3e:10:f4:7b:da:3f:78:45:b3:3f:0a:ea:e0:ca:1a:
         45:f7:9e:37:22:d5:96:69:c7:a0:e9:9f:66:bd:33:b4:a1:10:
         48:7d:ce:d3:e2:dd:f8:22:83:42:b8:29:13:1b:2b:fb:dc:44:
         51:a8:c5:41:51:8a:e5:18:fe:da:93:71:5f:53:d0:da:ed:17:
         e8:58:38:bf:c4:57:6a:e8:cd:26:df:0c:c3:f5:eb:e5:65:23:
         42:31:5e:4d:b2:1c:21:34:3f:ee:b9:f1:61:41:e4:9f:72:76:
         92:84:3b:3e:00:20:04:03:85:82:0b:ca:52:4a:e5:da:b9:f7:
         c5:88:8f:45:96:96:01:ef:9a:97:18:6c:e1:27:4f:b6:f0:23:
         fa:48:4c:bf:3f:dc:1a:23:fd:11:b8:ae:f5:1f:d2:b7:34:38:
         42:12:8e:4f:fa:7f:b2:46:e3:67:90:c4:ec:1d:e1:cf:c9:08:
         e1:2a:a8:9e:c3:1f:2b:cd:b9:7b:95:75:09:b1:9e:74:cd:35:
         6a:0c:4c:11:1d:6a:b9:51:93:40:68:4f:53:95:6e:a0:67:91:
         76:60:5b:5f:a2:6c:1a:f7:4b:46:e9:14:98:4d:26:eb:03:d3:
         62:ef:e2:cf:30:63:9f:a7:71:98:13:2a:4a:43:49:fd:23:9d:
         1d:17:d7:46
-----BEGIN CERTIFICATE-----
MIIEpTCCA42gAwIBAgICEAowDQYJKoZIhvcNAQELBQAwczELMAkGA1UEBhMCRlIx
DDAKBgNVBAgTA0lERjEOMAwGA1UEBxMFUGFyaXMxLzAtBgNVBAoTJkxvY2FsIE5P
REUtT1BDVUEgQ2VydGlmaWNhdGUgQXV0aG9yaXR5MRUwEwYDVQQDEwxOb2RlT1BD
VUEtQ0EwIhgPMjAxNzA4MzAwOTI1MjVaGA8yMDE4MDgzMDA5MjUyNVowNTELMAkG
A1UEBhMCRlIxEjAQBgNVBAoMCU5vZGVPUENVQTESMBAGA1UEAwwJTm9kZU9QQ1VB
MIIBIjANBgkqhkiG9w0BAQEFAAOCAQ8AMIIBCgKCAQEAxleDzJkdQtrK5FSfJi4z
KYqnoRZhYF0E56nvIY5HQdcc3PeqjqcxsOdlgG+Y3Eiye6K5hZ9TqxBJl0cBaT5J
tVBE71HLhqlQjMLu1tNqe8iOIzleXYTmAgkvawIO+fJhl4hG56G60BB+gwU+YJap
UWjLVA6b6wk0Ub2Ehmq0lLzNU4lZvnbpoxUY5uhXqvL0CV0KzhsHaOM6RXrjfMay
y9DkDnU+HEU+hk3bVp1GumOPzLXRMb6xJHZZ7zxicjzqhap622tjEjDz+svNh5h3
wVh/wzXYTKYSk5h7TarCLergfM3voSCY1SBRc2d1iTT+jDU2pIZ840tOLuHaagL1
UwIDAQABo4IBezCCAXcwDAYDVR0TAQH/BAIwADAdBgNVHQ4EFgQU7YnNT8Sg+CwC
x4XYKkopgXrf6OwwgaUGA1UdIwSBnTCBmoAUhP+ck7HQ6M6ittDJbB4EtG5DR9+h
d6R1MHMxCzAJBgNVBAYTAkZSMQwwCgYDVQQIEwNJREYxDjAMBgNVBAcTBVBhcmlz
MS8wLQYDVQQKEyZMb2NhbCBOT0RFLU9QQ1VBIENlcnRpZmljYXRlIEF1dGhvcml0
eTEVMBMGA1UEAxMMTm9kZU9QQ1VBLUNBggkAjX4nsiUw2m8wQAYDVR0RBDkwN4Yj
dXJuOk1VQ0tJOk5vZGVPUENVQS1EaXNjb3ZlcnlTZXJ2ZXKCCWxvY2FsaG9zdIIF
TVVDS0kwLAYJYIZIAYb4QgENBB8WHU9wZW5TU0wgR2VuZXJhdGVkIENlcnRpZmlj
YXRlMA4GA1UdDwEB/wQEAwIC/DAgBgNVHSUBAf8EFjAUBggrBgEFBQcDAQYIKwYB
BQUHAwIwDQYJKoZIhvcNAQELBQADggEBALb4dz4Q9HvaP3hFsz8K6uDKGkX3njci
1ZZpx6Dpn2a9M7ShEEh9ztPi3fgig0K4KRMbK/vcRFGoxUFRiuUY/tqTcV9T0Nrt
F+hYOL/EV2rozSbfDMP16+VlI0IxXk2yHCE0P+658WFB5J9ydpKEOz4AIAQDhYIL
ylJK5dq598WIj0WWlgHvmpcYbOEnT7bwI/pITL8/3Boj/RG4rvUf0rc0OEISjk/6
f7JG42eQxOwd4c/JCOEqqJ7DHyvNuXuVdQmxnnTNNWoMTBEdarlRk0BoT1OVbqBn
kXZgW1+ibBr3S0bpFJhNJusD02Lv4s8wY5+ncZgTKkpDSf0jnR0X10Y=
-----END CERTIFICATE-----
-----BEGIN CERTIFICATE-----
MIIE3TCCA8WgAwIBAgIJAI1+J7IlMNpvMA0GCSqGSIb3DQEBCwUAMHMxCzAJBgNV
BAYTAkZSMQwwCgYDVQQIEwNJREYxDjAMBgNVBAcTBVBhcmlzMS8wLQYDVQQKEyZM
b2NhbCBOT0RFLU9QQ1VBIENlcnRpZmljYXRlIEF1dGhvcml0eTEVMBMGA1UEAxMM
Tm9kZU9QQ1VBLUNBMB4XDTE3MDgzMTA5MjUyNloXDTI3MDgyOTA5MjUyNlowczEL
MAkGA1UEBhMCRlIxDDAKBgNVBAgTA0lERjEOMAwGA1UEBxMFUGFyaXMxLzAtBgNV
BAoTJkxvY2FsIE5PREUtT1BDVUEgQ2VydGlmaWNhdGUgQXV0aG9yaXR5MRUwEwYD
VQQDEwxOb2RlT1BDVUEtQ0EwggEiMA0GCSqGSIb3DQEBAQUAA4IBDwAwggEKAoIB
AQDG3v8admiXUVX1VCe/h9RQi7VbUfxK2lWcIIp4BgGYLQiyIh0sK9sba2b0tlO9
fIeSQuwWQlNKSE0ElEXUYmSWnpqUhZWjG6QZvE+VEJ5pIlYZNk4ABql15HaqoA6A
ZpUZnj9VQcK7C8S/A9WF/rOu3KxCNbwX0O3yR/zSzCqBGTcvE9EXvXC9X5rB7BKo
y7xqduE/bAhfgDnR0wHFX8M7PgId6LpF8+NWl8C7ApVcMxDYmiDO+P98EexuLyZp
KxGFuBT2mmb/YOOmZJ6CqorcDF43HHjtB2pybt9aCQkr1L9RFhdwKZVpSBTurlFh
YYxRzck1795Zb3CaQ1XJZEVNAgMBAAGjggFyMIIBbjAdBgNVHQ4EFgQUhP+ck7HQ
6M6ittDJbB4EtG5DR98wgaUGA1UdIwSBnTCBmoAUhP+ck7HQ6M6ittDJbB4EtG5D
R9+hd6R1MHMxCzAJBgNVBAYTAkZSMQwwCgYDVQQIEwNJREYxDjAMBgNVBAcTBVBh
cmlzMS8wLQYDVQQKEyZMb2NhbCBOT0RFLU9QQ1VBIENlcnRpZmljYXRlIEF1dGhv
cml0eTEVMBMGA1UEAxMMTm9kZU9QQ1VBLUNBggkAjX4nsiUw2m8wDAYDVR0TBAUw
AwEB/zAOBgNVHQ8BAf8EBAMCAQYwVwYJYIZIAYb4QgENBEoWSENBIENlcnRpZmlj
YXRlIGdlbmVyYXRlZCBieSBOb2RlLU9QQ1VBIENlcnRpZmljYXRlIHV0aWxpdHkg
dXNpbmcgb3BlbnNzbDAuBgNVHR8EJzAlMCOgIaAfhh1odHRwOi8vbG9jYWxob3N0
Ojg5MDAvY3JsLnBlbTANBgkqhkiG9w0BAQsFAAOCAQEASuoPMYtdxzTU5UuaU7Sr
nXmqqFLaPfFChdBdCiVqA+ZayhDHmrn1+D4zTHQ6fs7eSnoBtABSOlE2NoGFE+or
aC/oienkp48m/+2gx0Hi5blY0by0hSC/YAhMAJsOArfPB/Ma/O6+phMtudeaE42Q
qyUBqnRzH/J5LCzqfJlWm0mu26MVuyZxNWx4TMALPZFLT5AxHKd2VvUVssVWwBPb
rr29Pycy7/VuELsBVk37u449oZVdZk8NTfemKpb5VymSIaxhJGT4GN4oXkgp3kP4
+H/2p5sEVWeYB0e0EkagIQP2TpYSFqemdai4raNH7mTNfMaLwzfdhEtChV42de71
bQ==
-----END CERTIFICATE-----
