Certificate:
    Data:
        Version: 3 (0x2)
        Serial Number: 4104 (0x1008)
    Signature Algorithm: sha256WithRSAEncryption
        Issuer: C=FR, ST=IDF, L=Paris, O=Local NODE-OPCUA Certificate Authority, CN=NodeOPCUA-CA
        Validity
            Not Before: Aug 30 09:25:25 2017 GMT
            Not After : Aug 30 09:25:25 2018 GMT
        Subject: C=FR, O=NodeOPCUA, CN=NodeOPCUA
        Subject Public Key Info:
            Public Key Algorithm: rsaEncryption
                Public-Key: (1024 bit)
                Modulus:
                    00:df:a8:6d:c3:d5:73:80:c0:88:27:7d:84:b3:5c:
                    86:d2:9f:09:50:2e:01:67:ab:f0:2a:e6:2a:80:80:
                    e0:5d:be:df:94:6d:6e:d2:6a:02:77:b5:5d:1f:c8:
                    d6:a2:4a:a6:84:3c:2f:2d:1f:ce:6d:f5:81:a3:8b:
                    f6:87:c6:c6:d1:c6:78:02:38:c7:bb:67:bd:b9:ac:
                    84:c6:ce:da:1f:0a:af:cb:b5:80:59:7f:bb:8d:ff:
                    1d:06:95:63:49:73:86:7b:21:93:1e:e4:f0:cb:90:
                    ab:e9:7c:61:aa:b0:d2:29:89:a5:39:8e:18:a4:d4:
                    cc:da:28:3e:e5:92:c5:cd:65
                Exponent: 65537 (0x10001)
        X509v3 extensions:
            X509v3 Basic Constraints: critical
                CA:FALSE
            X509v3 Subject Key Identifier: 
                0C:44:66:90:A3:D4:50:BB:0D:80:33:82:DA:0F:69:E9:8F:90:2B:5D
            X509v3 Authority Key Identifier: 
                keyid:84:FF:9C:93:B1:D0:E8:CE:A2:B6:D0:C9:6C:1E:04:B4:6E:43:47:DF
                DirName:/C=FR/ST=IDF/L=Paris/O=Local NODE-OPCUA Certificate Authority/CN=NodeOPCUA-CA
                serial:8D:7E:27:B2:25:30:DA:6F

            X509v3 Subject Alternative Name: 
                URI:urn:MUCKI:NodeOPCUA-DiscoveryServer, DNS:localhost, DNS:MUCKI
            Netscape Comment: 
                OpenSSL Generated Certificate
            X509v3 Key Usage: critical
                Digital Signature, Non Repudiation, Key Encipherment, Data Encipherment, Key Agreement, Certificate Sign
            X509v3 Extended Key Usage: critical
                TLS Web Server Authentication, TLS Web Client Authentication
    Signature Algorithm: sha256WithRSAEncryption
         19:b8:cf:7b:00:50:de:58:0e:5d:8b:94:1b:70:22:66:0d:48:
         96:96:3a:42:80:dc:cb:14:c4:d8:d3:aa:0a:c5:f0:02:15:e3:
         5e:a5:02:bd:be:3f:f8:98:6d:65:d6:9e:62:28:af:63:f0:da:
         6d:6e:91:0d:a5:eb:22:12:5c:0d:f3:6f:8b:b3:87:53:b6:c1:
         e7:cc:ae:13:c9:0a:2f:1f:b3:d4:19:ca:f3:9c:ee:49:17:44:
         0e:5e:91:7b:34:68:e5:89:c6:5f:0f:ca:73:49:ee:0c:f7:6a:
         6d:26:7d:a7:d1:f7:32:3b:16:39:67:30:3f:df:e5:c8:a8:09:
         f0:1b:ba:b6:81:9e:7a:07:8f:d3:f4:ad:64:0d:09:f5:8a:9c:
         97:44:f1:16:a5:e8:60:d4:ca:a3:8b:09:2b:7a:87:2a:78:b2:
         17:a5:06:35:7b:c8:f4:b5:e1:10:f9:10:e0:45:d8:dc:2e:51:
         b0:33:fa:2f:e6:28:76:c3:b7:0a:79:8f:4c:0e:a6:dd:8e:ba:
         78:9f:5d:f2:3d:26:8c:e7:05:52:cd:7b:fd:90:ac:7c:86:2a:
         64:c4:93:5d:ff:1d:2d:37:fa:06:23:06:e9:e6:f8:8b:49:8a:
         b3:48:e2:af:70:9c:82:05:ba:dc:bd:82:b5:3d:19:3f:81:a2:
         6c:db:f3:b1
-----BEGIN CERTIFICATE-----
MIIEITCCAwmgAwIBAgICEAgwDQYJKoZIhvcNAQELBQAwczELMAkGA1UEBhMCRlIx
DDAKBgNVBAgTA0lERjEOMAwGA1UEBxMFUGFyaXMxLzAtBgNVBAoTJkxvY2FsIE5P
REUtT1BDVUEgQ2VydGlmaWNhdGUgQXV0aG9yaXR5MRUwEwYDVQQDEwxOb2RlT1BD
VUEtQ0EwIhgPMjAxNzA4MzAwOTI1MjVaGA8yMDE4MDgzMDA5MjUyNVowNTELMAkG
A1UEBhMCRlIxEjAQBgNVBAoMCU5vZGVPUENVQTESMBAGA1UEAwwJTm9kZU9QQ1VB
MIGfMA0GCSqGSIb3DQEBAQUAA4GNADCBiQKBgQDfqG3D1XOAwIgnfYSzXIbSnwlQ
LgFnq/Aq5iqAgOBdvt+UbW7SagJ3tV0fyNaiSqaEPC8tH85t9YGji/aHxsbRxngC
OMe7Z725rITGztofCq/LtYBZf7uN/x0GlWNJc4Z7IZMe5PDLkKvpfGGqsNIpiaU5
jhik1MzaKD7lksXNZQIDAQABo4IBezCCAXcwDAYDVR0TAQH/BAIwADAdBgNVHQ4E
FgQUDERmkKPUULsNgDOC2g9p6Y+QK10wgaUGA1UdIwSBnTCBmoAUhP+ck7HQ6M6i
ttDJbB4EtG5DR9+hd6R1MHMxCzAJBgNVBAYTAkZSMQwwCgYDVQQIEwNJREYxDjAM
BgNVBAcTBVBhcmlzMS8wLQYDVQQKEyZMb2NhbCBOT0RFLU9QQ1VBIENlcnRpZmlj
YXRlIEF1dGhvcml0eTEVMBMGA1UEAxMMTm9kZU9QQ1VBLUNBggkAjX4nsiUw2m8w
QAYDVR0RBDkwN4YjdXJuOk1VQ0tJOk5vZGVPUENVQS1EaXNjb3ZlcnlTZXJ2ZXKC
CWxvY2FsaG9zdIIFTVVDS0kwLAYJYIZIAYb4QgENBB8WHU9wZW5TU0wgR2VuZXJh
dGVkIENlcnRpZmljYXRlMA4GA1UdDwEB/wQEAwIC/DAgBgNVHSUBAf8EFjAUBggr
BgEFBQcDAQYIKwYBBQUHAwIwDQYJKoZIhvcNAQELBQADggEBABm4z3sAUN5YDl2L
lBtwImYNSJaWOkKA3MsUxNjTqgrF8AIV416lAr2+P/iYbWXWnmIor2Pw2m1ukQ2l
6yISXA3zb4uzh1O2wefMrhPJCi8fs9QZyvOc7kkXRA5ekXs0aOWJxl8PynNJ7gz3
am0mfafR9zI7FjlnMD/f5cioCfAburaBnnoHj9P0rWQNCfWKnJdE8Ral6GDUyqOL
CSt6hyp4shelBjV7yPS14RD5EOBF2NwuUbAz+i/mKHbDtwp5j0wOpt2OunifXfI9
JoznBVLNe/2QrHyGKmTEk13/HS03+gYjBunm+ItJirNI4q9wnIIFuty9grU9GT+B
omzb87E=
-----END CERTIFICATE-----
-----BEGIN CERTIFICATE-----
MIIE3TCCA8WgAwIBAgIJAI1+J7IlMNpvMA0GCSqGSIb3DQEBCwUAMHMxCzAJBgNV
BAYTAkZSMQwwCgYDVQQIEwNJREYxDjAMBgNVBAcTBVBhcmlzMS8wLQYDVQQKEyZM
b2NhbCBOT0RFLU9QQ1VBIENlcnRpZmljYXRlIEF1dGhvcml0eTEVMBMGA1UEAxMM
Tm9kZU9QQ1VBLUNBMB4XDTE3MDgzMTA5MjUyNloXDTI3MDgyOTA5MjUyNlowczEL
MAkGA1UEBhMCRlIxDDAKBgNVBAgTA0lERjEOMAwGA1UEBxMFUGFyaXMxLzAtBgNV
BAoTJkxvY2FsIE5PREUtT1BDVUEgQ2VydGlmaWNhdGUgQXV0aG9yaXR5MRUwEwYD
VQQDEwxOb2RlT1BDVUEtQ0EwggEiMA0GCSqGSIb3DQEBAQUAA4IBDwAwggEKAoIB
AQDG3v8admiXUVX1VCe/h9RQi7VbUfxK2lWcIIp4BgGYLQiyIh0sK9sba2b0tlO9
fIeSQuwWQlNKSE0ElEXUYmSWnpqUhZWjG6QZvE+VEJ5pIlYZNk4ABql15HaqoA6A
ZpUZnj9VQcK7C8S/A9WF/rOu3KxCNbwX0O3yR/zSzCqBGTcvE9EXvXC9X5rB7BKo
y7xqduE/bAhfgDnR0wHFX8M7PgId6LpF8+NWl8C7ApVcMxDYmiDO+P98EexuLyZp
KxGFuBT2mmb/YOOmZJ6CqorcDF43HHjtB2pybt9aCQkr1L9RFhdwKZVpSBTurlFh
YYxRzck1795Zb3CaQ1XJZEVNAgMBAAGjggFyMIIBbjAdBgNVHQ4EFgQUhP+ck7HQ
6M6ittDJbB4EtG5DR98wgaUGA1UdIwSBnTCBmoAUhP+ck7HQ6M6ittDJbB4EtG5D
R9+hd6R1MHMxCzAJBgNVBAYTAkZSMQwwCgYDVQQIEwNJREYxDjAMBgNVBAcTBVBh
cmlzMS8wLQYDVQQKEyZMb2NhbCBOT0RFLU9QQ1VBIENlcnRpZmljYXRlIEF1dGhv
cml0eTEVMBMGA1UEAxMMTm9kZU9QQ1VBLUNBggkAjX4nsiUw2m8wDAYDVR0TBAUw
AwEB/zAOBgNVHQ8BAf8EBAMCAQYwVwYJYIZIAYb4QgENBEoWSENBIENlcnRpZmlj
YXRlIGdlbmVyYXRlZCBieSBOb2RlLU9QQ1VBIENlcnRpZmljYXRlIHV0aWxpdHkg
dXNpbmcgb3BlbnNzbDAuBgNVHR8EJzAlMCOgIaAfhh1odHRwOi8vbG9jYWxob3N0
Ojg5MDAvY3JsLnBlbTANBgkqhkiG9w0BAQsFAAOCAQEASuoPMYtdxzTU5UuaU7Sr
nXmqqFLaPfFChdBdCiVqA+ZayhDHmrn1+D4zTHQ6fs7eSnoBtABSOlE2NoGFE+or
aC/oienkp48m/+2gx0Hi5blY0by0hSC/YAhMAJsOArfPB/Ma/O6+phMtudeaE42Q
qyUBqnRzH/J5LCzqfJlWm0mu26MVuyZxNWx4TMALPZFLT5AxHKd2VvUVssVWwBPb
rr29Pycy7/VuELsBVk37u449oZVdZk8NTfemKpb5VymSIaxhJGT4GN4oXkgp3kP4
+H/2p5sEVWeYB0e0EkagIQP2TpYSFqemdai4raNH7mTNfMaLwzfdhEtChV42de71
bQ==
-----END CERTIFICATE-----
