Certificate:
    Data:
        Version: 3 (0x2)
        Serial Number: 4105 (0x1009)
    Signature Algorithm: sha256WithRSAEncryption
        Issuer: O=NodeOPCUA, CN=NodeOPCUA
        Validity
            Not Before: Aug 30 09:25:25 2017 GMT
            Not After : Aug 30 09:25:25 2018 GMT
        Subject: O=NodeOPCUA, CN=NodeOPCUA
        Subject Public Key Info:
            Public Key Algorithm: rsaEncryption
                Public-Key: (1024 bit)
                Modulus:
                    00:df:a8:6d:c3:d5:73:80:c0:88:27:7d:84:b3:5c:
                    86:d2:9f:09:50:2e:01:67:ab:f0:2a:e6:2a:80:80:
                    e0:5d:be:df:94:6d:6e:d2:6a:02:77:b5:5d:1f:c8:
                    d6:a2:4a:a6:84:3c:2f:2d:1f:ce:6d:f5:81:a3:8b:
                    f6:87:c6:c6:d1:c6:78:02:38:c7:bb:67:bd:b9:ac:
                    84:c6:ce:da:1f:0a:af:cb:b5:80:59:7f:bb:8d:ff:
                    1d:06:95:63:49:73:86:7b:21:93:1e:e4:f0:cb:90:
                    ab:e9:7c:61:aa:b0:d2:29:89:a5:39:8e:18:a4:d4:
                    cc:da:28:3e:e5:92:c5:cd:65
                Exponent: 65537 (0x10001)
        X509v3 extensions:
            X509v3 Basic Constraints: critical
                CA:FALSE
            X509v3 Subject Key Identifier: 
                0C:44:66:90:A3:D4:50:BB:0D:80:33:82:DA:0F:69:E9:8F:90:2B:5D
            X509v3 Authority Key Identifier: 
                keyid:0C:44:66:90:A3:D4:50:BB:0D:80:33:82:DA:0F:69:E9:8F:90:2B:5D
                DirName:/O=NodeOPCUA/CN=NodeOPCUA
                serial:10:09

            X509v3 Subject Alternative Name: 
                URI:urn:MUCKI:NodeOPCUA-DiscoveryServer, DNS:localhost, DNS:MUCKI
            Netscape Comment: 
                OpenSSL Generated Certificate
            X509v3 Key Usage: critical
                Digital Signature, Non Repudiation, Key Encipherment, Data Encipherment, Key Agreement, Certificate Sign
            X509v3 Extended Key Usage: critical
                TLS Web Server Authentication, TLS Web Client Authentication
    Signature Algorithm: sha256WithRSAEncryption
         64:22:0f:3b:7a:52:67:0d:0e:b2:fe:85:94:03:c4:af:74:8e:
         03:b3:cc:aa:b4:dd:51:a1:e8:9b:3e:c9:be:21:d0:50:bb:b6:
         4a:dc:90:de:f7:e9:1f:8e:67:18:62:09:91:09:c1:d1:10:f9:
         c7:19:22:6a:2c:c4:35:10:e6:d1:d2:7d:88:46:d9:08:85:52:
         c4:e7:15:d5:99:e1:42:fe:51:82:51:c0:74:f2:e0:e9:ef:b3:
         87:16:e1:ad:12:3c:2e:a8:40:26:63:7f:d3:e2:df:3a:3e:ab:
         dd:4c:90:89:64:f2:f7:c6:b9:77:16:51:8d:24:69:94:86:13:
         7b:f7
-----BEGIN CERTIFICATE-----
MIIC8zCCAlygAwIBAgICEAkwDQYJKoZIhvcNAQELBQAwKDESMBAGA1UEChMJTm9k
ZU9QQ1VBMRIwEAYDVQQDEwlOb2RlT1BDVUEwIhgPMjAxNzA4MzAwOTI1MjVaGA8y
MDE4MDgzMDA5MjUyNVowKDESMBAGA1UEChMJTm9kZU9QQ1VBMRIwEAYDVQQDEwlO
b2RlT1BDVUEwgZ8wDQYJKoZIhvcNAQEBBQADgY0AMIGJAoGBAN+obcPVc4DAiCd9
hLNchtKfCVAuAWer8CrmKoCA4F2+35RtbtJqAne1XR/I1qJKpoQ8Ly0fzm31gaOL
9ofGxtHGeAI4x7tnvbmshMbO2h8Kr8u1gFl/u43/HQaVY0lzhnshkx7k8MuQq+l8
Yaqw0imJpTmOGKTUzNooPuWSxc1lAgMBAAGjggEmMIIBIjAMBgNVHRMBAf8EAjAA
MB0GA1UdDgQWBBQMRGaQo9RQuw2AM4LaD2npj5ArXTBRBgNVHSMESjBIgBQMRGaQ
o9RQuw2AM4LaD2npj5ArXaEspCowKDESMBAGA1UEChMJTm9kZU9QQ1VBMRIwEAYD
VQQDEwlOb2RlT1BDVUGCAhAJMEAGA1UdEQQ5MDeGI3VybjpNVUNLSTpOb2RlT1BD
VUEtRGlzY292ZXJ5U2VydmVygglsb2NhbGhvc3SCBU1VQ0tJMCwGCWCGSAGG+EIB
DQQfFh1PcGVuU1NMIEdlbmVyYXRlZCBDZXJ0aWZpY2F0ZTAOBgNVHQ8BAf8EBAMC
AvwwIAYDVR0lAQH/BBYwFAYIKwYBBQUHAwEGCCsGAQUFBwMCMA0GCSqGSIb3DQEB
CwUAA4GBAGQiDzt6UmcNDrL+hZQDxK90jgOzzKq03VGh6Js+yb4h0FC7tkrckN73
6R+OZxhiCZEJwdEQ+ccZImosxDUQ5tHSfYhG2QiFUsTnFdWZ4UL+UYJRwHTy4Onv
s4cW4a0SPC6oQCZjf9Pi3zo+q91MkIlk8vfGuXcWUY0kaZSGE3v3
-----END CERTIFICATE-----
