Certificate Request:
    Data:
        Version: 0 (0x0)
        Subject: C=FR, O=NodeOPCUA, CN=NodeOPCUA
        Subject Public Key Info:
            Public Key Algorithm: rsaEncryption
                Public-Key: (1024 bit)
                Modulus:
                    00:d8:ab:81:1c:48:4b:04:da:9a:8c:2c:c1:7b:48:
                    9f:0d:21:fe:1a:66:ff:b7:f9:95:b5:f7:0c:32:e9:
                    b7:a1:0b:01:14:9a:94:39:fc:20:17:a4:c2:3c:34:
                    90:1f:aa:56:50:32:65:2f:37:4c:80:f3:5e:ab:a5:
                    a0:71:34:e6:20:6e:78:1c:c9:ea:a8:fb:56:dd:35:
                    29:95:78:4f:37:fe:18:91:1f:71:78:c6:ca:cb:3d:
                    9b:0e:1a:c3:ac:52:91:28:84:d5:1d:0e:cd:ce:02:
                    86:d1:88:27:fc:ec:6e:dc:63:32:21:93:e6:80:30:
                    0f:90:5a:b5:e4:e7:5b:d7:09
                Exponent: 65537 (0x10001)
        Attributes:
        Requested Extensions:
            X509v3 Basic Constraints: 
                CA:FALSE
            X509v3 Key Usage: critical
                Certificate Sign, CRL Sign
            X509v3 Subject Alternative Name: 
                URI:undefined
    Signature Algorithm: sha256WithRSAEncryption
         7a:bc:12:58:71:46:1f:ec:08:02:5e:88:b5:06:8e:d8:0b:6b:
         51:0b:70:bf:76:31:5e:4c:db:a0:a6:83:db:fe:00:9e:ff:26:
         2d:0b:b6:43:3b:9d:ba:a2:90:39:f2:19:27:2c:0a:80:e2:1f:
         08:7a:81:72:a0:6e:77:5a:55:1e:26:a4:b7:73:c6:8d:56:f4:
         28:05:44:ac:f6:ba:6e:8c:d3:f4:67:d0:2a:63:32:b0:08:85:
         17:1b:4f:1b:ea:c4:34:45:b1:da:47:31:95:a3:b2:cf:a0:22:
         aa:68:10:c2:4b:e1:eb:c5:4f:88:07:29:2a:48:85:c9:f7:0b:
         9c:a3
-----BEGIN CERTIFICATE REQUEST-----
MIIBtzCCASACAQAwNTELMAkGA1UEBhMCRlIxEjAQBgNVBAoMCU5vZGVPUENVQTES
MBAGA1UEAwwJTm9kZU9QQ1VBMIGfMA0GCSqGSIb3DQEBAQUAA4GNADCBiQKBgQDY
q4EcSEsE2pqMLMF7SJ8NIf4aZv+3+ZW19wwy6behCwEUmpQ5/CAXpMI8NJAfqlZQ
MmUvN0yA816rpaBxNOYgbngcyeqo+1bdNSmVeE83/hiRH3F4xsrLPZsOGsOsUpEo
hNUdDs3OAobRiCf87G7cYzIhk+aAMA+QWrXk51vXCQIDAQABoEIwQAYJKoZIhvcN
AQkOMTMwMTAJBgNVHRMEAjAAMA4GA1UdDwEB/wQEAwIBBjAUBgNVHREEDTALhgl1
bmRlZmluZWQwDQYJKoZIhvcNAQELBQADgYEAerwSWHFGH+wIAl6ItQaO2AtrUQtw
v3YxXkzboKaD2/4Anv8mLQu2QzuduqKQOfIZJywKgOIfCHqBcqBud1pVHiakt3PG
jVb0KAVErPa6bozT9GfQKmMysAiFFxtPG+rENEWx2kcxlaOyz6AiqmgQwkvh68VP
iAcpKkiFyfcLnKM=
-----END CERTIFICATE REQUEST-----
