Certificate Request:
    Data:
        Version: 0 (0x0)
        Subject: C=FR, O=NodeOPCUA, CN=NodeOPCUA
        Subject Public Key Info:
            Public Key Algorithm: rsaEncryption
                Public-Key: (1024 bit)
                Modulus:
                    00:d7:62:8c:5c:c7:de:3c:0e:ae:f9:fa:79:7e:fa:
                    a3:44:71:25:45:1e:37:30:9c:ee:c9:2d:12:52:c5:
                    ee:92:ce:b3:88:c0:a6:f8:a9:7d:02:01:a0:78:60:
                    3a:af:f1:ac:51:3d:dd:38:89:0f:28:28:9c:6b:ab:
                    fc:13:fe:82:42:d8:1d:eb:4a:60:c1:0d:90:46:43:
                    d7:73:c7:a3:bf:c3:ec:aa:67:c9:a5:56:85:2c:49:
                    3f:1d:d8:f8:f8:d0:5e:c0:47:96:c2:f8:87:6b:8d:
                    7b:14:ed:b6:d9:47:b7:08:b0:83:ac:2e:ba:05:ce:
                    d0:e8:9c:2c:95:32:e9:cc:a1
                Exponent: 65537 (0x10001)
        Attributes:
        Requested Extensions:
            X509v3 Basic Constraints: 
                CA:FALSE
            X509v3 Key Usage: critical
                Certificate Sign, CRL Sign
            X509v3 Subject Alternative Name: 
                URI:undefined
    Signature Algorithm: sha256WithRSAEncryption
         79:15:83:22:01:68:3a:94:c2:24:e7:ef:e5:85:65:da:04:6a:
         39:b2:90:f7:8d:1d:f4:c8:b9:1d:22:0d:e9:8b:6f:ca:c9:69:
         60:e6:3b:34:2e:67:b1:25:58:c0:21:d3:69:2e:ca:a6:72:32:
         d5:96:86:28:41:39:fe:53:ce:1a:0d:c8:ac:a1:50:f1:a5:49:
         c9:df:a1:26:f0:a9:5f:ca:41:c4:75:86:fc:4c:46:ed:fc:58:
         f1:e0:86:88:e2:2b:1c:1b:61:67:27:cd:df:7b:27:62:c3:ed:
         d1:42:ae:d2:27:99:85:bc:c1:b1:b7:a4:fb:81:15:3b:b9:9a:
         26:68
-----BEGIN CERTIFICATE REQUEST-----
MIIBtzCCASACAQAwNTELMAkGA1UEBhMCRlIxEjAQBgNVBAoMCU5vZGVPUENVQTES
MBAGA1UEAwwJTm9kZU9QQ1VBMIGfMA0GCSqGSIb3DQEBAQUAA4GNADCBiQKBgQDX
Yoxcx948Dq75+nl++qNEcSVFHjcwnO7JLRJSxe6SzrOIwKb4qX0CAaB4YDqv8axR
Pd04iQ8oKJxrq/wT/oJC2B3rSmDBDZBGQ9dzx6O/w+yqZ8mlVoUsST8d2Pj40F7A
R5bC+IdrjXsU7bbZR7cIsIOsLroFztDonCyVMunMoQIDAQABoEIwQAYJKoZIhvcN
AQkOMTMwMTAJBgNVHRMEAjAAMA4GA1UdDwEB/wQEAwIBBjAUBgNVHREEDTALhgl1
bmRlZmluZWQwDQYJKoZIhvcNAQELBQADgYEAeRWDIgFoOpTCJOfv5YVl2gRqObKQ
940d9Mi5HSIN6YtvyslpYOY7NC5nsSVYwCHTaS7KpnIy1ZaGKEE5/lPOGg3IrKFQ
8aVJyd+hJvCpX8pBxHWG/ExG7fxY8eCGiOIrHBthZyfN33snYsPt0UKu0ieZhbzB
sbek+4EVO7maJmg=
-----END CERTIFICATE REQUEST-----
