Certificate Request:
    Data:
        Version: 0 (0x0)
        Subject: C=FR, O=NodeOPCUA, CN=NodeOPCUA
        Subject Public Key Info:
            Public Key Algorithm: rsaEncryption
                Public-Key: (2048 bit)
                Modulus:
                    00:e1:90:8c:62:da:90:22:82:2f:99:17:c1:f7:43:
                    fa:9e:fd:46:f9:4b:da:24:42:b2:e6:e2:1c:0e:52:
                    06:d1:a8:61:ed:27:b9:70:5a:6e:a7:b1:bf:3c:18:
                    7b:40:f7:83:38:e4:58:9f:46:2a:0b:a3:e7:ba:2b:
                    3d:06:aa:8b:4c:04:3a:e8:58:94:1e:4b:70:d4:05:
                    c9:ef:be:0b:46:fd:c6:16:b9:d0:a7:40:59:76:8d:
                    76:ff:38:a2:c4:91:d9:d5:32:06:31:e9:8c:ac:10:
                    34:7f:d3:68:d7:c3:f0:3f:d6:09:cf:f1:5e:6f:3a:
                    0d:2c:c3:95:cf:92:28:d0:69:b4:c2:12:88:e5:a3:
                    9a:be:72:80:1a:dc:85:4a:6a:fd:38:6e:1c:8c:98:
                    13:f5:f3:e9:fd:83:f0:3d:ba:f7:dc:98:62:99:e8:
                    66:91:45:99:0e:14:3a:7a:0d:c0:80:ff:a7:61:68:
                    da:d1:1a:29:e0:cc:6f:cb:ef:98:f9:be:cf:4f:37:
                    92:78:48:18:51:c6:35:3a:14:74:1c:d0:f9:74:3f:
                    1b:34:bb:e3:31:02:8d:b3:db:7f:f5:16:7a:21:6d:
                    4f:46:10:cc:89:99:5f:84:ce:8b:09:9c:65:12:17:
                    ef:40:b8:51:bd:af:24:e8:3c:75:3f:6d:7d:b1:cd:
                    e2:0d
                Exponent: 65537 (0x10001)
        Attributes:
        Requested Extensions:
            X509v3 Basic Constraints: 
                CA:FALSE
            X509v3 Key Usage: critical
                Certificate Sign, CRL Sign
            X509v3 Subject Alternative Name: 
                URI:undefined
    Signature Algorithm: sha256WithRSAEncryption
         b3:c2:b7:74:5e:53:6f:6d:b0:28:20:0d:7f:74:2e:9f:f6:d1:
         b7:c6:73:9d:e7:03:16:64:a5:c6:9f:58:40:aa:09:3a:4e:69:
         06:e1:e1:11:82:c4:ee:08:83:42:69:fa:be:f9:25:c7:25:2f:
         18:b5:cc:77:9b:d0:fd:1a:a5:1f:de:0e:67:a9:09:a4:a9:56:
         07:4f:a9:54:93:02:ba:a7:74:1c:f3:7d:76:d4:fd:1e:6f:d2:
         2d:5e:e1:ae:e2:1d:48:bb:24:18:4e:6b:81:d2:e4:af:5d:15:
         07:fd:c6:bd:d6:93:41:1c:28:35:b0:be:0a:cc:c3:c1:62:2c:
         e9:c1:c3:35:e8:dc:b3:d7:a8:5c:03:42:35:8e:eb:26:e8:fc:
         74:ab:3e:f3:92:38:6d:8f:fb:7b:9c:94:6a:d2:1e:9e:39:49:
         38:c3:eb:a7:59:8b:60:39:2e:ac:23:6e:c2:7e:4d:ce:37:f7:
         c6:ab:a8:64:48:7d:bc:fc:61:38:73:32:d7:f7:26:ed:bd:2d:
         08:b0:1b:f5:ae:f6:f6:78:16:d3:01:37:a3:57:fb:e7:1f:18:
         d8:88:b7:28:ef:8c:34:d9:43:cc:92:4d:79:46:5e:50:c1:69:
         82:96:38:3e:bb:b9:66:9f:f0:cb:2c:9a:3d:5d:60:bb:32:10:
         b4:b8:6c:be
-----BEGIN CERTIFICATE REQUEST-----
MIICvDCCAaQCAQAwNTELMAkGA1UEBhMCRlIxEjAQBgNVBAoMCU5vZGVPUENVQTES
MBAGA1UEAwwJTm9kZU9QQ1VBMIIBIjANBgkqhkiG9w0BAQEFAAOCAQ8AMIIBCgKC
AQEA4ZCMYtqQIoIvmRfB90P6nv1G+UvaJEKy5uIcDlIG0ahh7Se5cFpup7G/PBh7
QPeDOORYn0YqC6Pnuis9BqqLTAQ66FiUHktw1AXJ774LRv3GFrnQp0BZdo12/zii
xJHZ1TIGMemMrBA0f9No18PwP9YJz/FebzoNLMOVz5Io0Gm0whKI5aOavnKAGtyF
Smr9OG4cjJgT9fPp/YPwPbr33JhimehmkUWZDhQ6eg3AgP+nYWja0Rop4Mxvy++Y
+b7PTzeSeEgYUcY1OhR0HND5dD8bNLvjMQKNs9t/9RZ6IW1PRhDMiZlfhM6LCZxl
EhfvQLhRva8k6Dx1P219sc3iDQIDAQABoEIwQAYJKoZIhvcNAQkOMTMwMTAJBgNV
HRMEAjAAMA4GA1UdDwEB/wQEAwIBBjAUBgNVHREEDTALhgl1bmRlZmluZWQwDQYJ
KoZIhvcNAQELBQADggEBALPCt3ReU29tsCggDX90Lp/20bfGc53nAxZkpcafWECq
CTpOaQbh4RGCxO4Ig0Jp+r75JcclLxi1zHeb0P0apR/eDmepCaSpVgdPqVSTArqn
dBzzfXbU/R5v0i1e4a7iHUi7JBhOa4HS5K9dFQf9xr3Wk0EcKDWwvgrMw8FiLOnB
wzXo3LPXqFwDQjWO6ybo/HSrPvOSOG2P+3uclGrSHp45STjD66dZi2A5LqwjbsJ+
Tc4398arqGRIfbz8YThzMtf3Ju29LQiwG/Wu9vZ4FtMBN6NX++cfGNiItyjvjDTZ
Q8ySTXlGXlDBaYKWOD67uWaf8Mssmj1dYLsyELS4bL4=
-----END CERTIFICATE REQUEST-----
