Certificate:
    Data:
        Version: 3 (0x2)
        Serial Number: 4102 (0x1006)
    Signature Algorithm: sha256WithRSAEncryption
        Issuer: C=FR, ST=IDF, L=Paris, O=Local NODE-OPCUA Certificate Authority, CN=NodeOPCUA-CA
        Validity
            Not Before: Sep  3 10:44:36 2018 GMT
            Not After : Sep  3 10:44:36 2019 GMT
        Subject: C=FR, O=NodeOPCUA, CN=NodeOPCUA
        Subject Public Key Info:
            Public Key Algorithm: rsaEncryption
                Public-Key: (2048 bit)
                Modulus:
                    00:f4:22:43:64:cd:57:a6:b6:ee:88:95:c6:73:e4:
                    fb:c9:cd:d9:65:4d:36:d8:a3:80:0f:44:ee:e0:6f:
                    f7:9a:20:24:c4:14:dc:79:d0:fc:1a:59:be:6d:03:
                    2a:36:cd:e3:43:04:59:c5:d1:d1:c0:bc:64:09:b4:
                    0c:1d:90:30:85:9d:cd:02:3a:ba:f6:c0:fa:61:2f:
                    57:a0:78:02:b9:16:bc:c2:73:5e:69:4a:29:6e:0e:
                    08:29:37:4b:cd:c9:48:f6:f4:40:84:c3:47:3d:05:
                    a9:6e:cd:f6:3b:bf:4e:f5:52:95:be:f8:f0:37:38:
                    fd:ae:10:89:4c:86:fd:96:4b:8a:68:76:33:9f:46:
                    4e:1a:16:14:65:d8:02:2e:65:c9:81:20:35:c8:2d:
                    12:ce:6c:a8:4c:b2:19:e8:d1:9b:a1:61:2d:74:46:
                    a3:07:6a:51:18:08:db:16:b8:6a:f7:45:6b:67:32:
                    c0:84:7f:b2:41:5a:1a:46:eb:df:68:e4:54:3f:89:
                    77:7f:71:31:95:10:a0:63:a3:fa:dd:37:cb:60:6b:
                    68:36:71:2e:9d:4c:17:97:b5:11:64:b0:f6:a8:a8:
                    35:12:38:16:4a:98:62:ab:32:ea:f1:82:29:c9:dc:
                    26:79:48:6d:a0:a9:a8:cb:b5:22:f4:d2:52:cf:ee:
                    fa:c3
                Exponent: 65537 (0x10001)
        X509v3 extensions:
            X509v3 Basic Constraints: critical
                CA:FALSE
            X509v3 Subject Key Identifier: 
                D3:8F:9F:0E:35:73:65:76:2C:BE:31:E7:A7:36:97:6F:BC:32:AD:9B
            X509v3 Authority Key Identifier: 
                keyid:D3:81:4E:D9:C6:61:17:6C:47:A8:0D:83:36:F8:BA:7E:2C:F8:B6:AB
                DirName:/C=FR/ST=IDF/L=Paris/O=Local NODE-OPCUA Certificate Authority/CN=NodeOPCUA-CA
                serial:86:71:D7:EE:71:12:AB:EE

            X509v3 Subject Alternative Name: 
                URI:urn:NB5DSCR503191NB:NodeOPCUA-Server, DNS:localhost, DNS:NB5DSCR503191NB
            Netscape Comment: 
                OpenSSL Generated Certificate
            X509v3 Key Usage: critical
                Digital Signature, Non Repudiation, Key Encipherment, Data Encipherment, Key Agreement, Certificate Sign
            X509v3 Extended Key Usage: critical
                TLS Web Server Authentication, TLS Web Client Authentication
    Signature Algorithm: sha256WithRSAEncryption
         34:c4:f7:ca:d1:a0:71:14:b8:95:03:d3:03:ef:a2:85:52:12:
         9b:39:a5:85:0e:27:b2:c9:6c:7e:9a:95:86:dc:05:d7:3a:42:
         e5:43:25:b3:b1:66:c1:c3:f2:ef:3f:46:fd:91:2e:30:02:d5:
         b3:b2:6c:46:95:21:d0:73:f8:45:50:2f:ae:00:86:a1:44:17:
         f2:c8:bb:7a:74:05:c3:d3:28:3d:06:ee:21:9b:50:5d:92:86:
         80:23:ec:13:8a:a3:d5:fa:36:fd:1a:2b:62:52:0e:40:62:b5:
         97:bb:71:7d:b3:d7:34:2c:32:2a:4c:d7:8d:92:15:7a:69:0a:
         71:1d:06:36:d6:72:6e:48:7e:c1:6a:58:be:fa:c4:af:ed:07:
         a8:14:fc:0e:41:d7:8f:ad:86:21:f1:58:79:8e:ad:4b:e3:67:
         a4:04:88:70:c9:bb:83:f0:8a:cb:09:17:88:00:d4:19:8c:40:
         74:8e:94:5e:39:0d:8d:d7:33:51:bd:15:dc:38:54:52:34:71:
         64:1a:3a:29:a7:93:0c:a2:06:87:04:a4:d9:6d:92:ca:3d:15:
         a4:83:1c:1d:b6:ad:d8:36:44:dc:3b:1b:ec:eb:c4:b3:2c:ac:
         db:ce:0f:28:29:b7:51:f9:82:9b:e8:4b:55:ee:e4:4b:7c:84:
         d5:df:19:b8
-----BEGIN CERTIFICATE-----
MIIEsDCCA5igAwIBAgICEAYwDQYJKoZIhvcNAQELBQAwczELMAkGA1UEBhMCRlIx
DDAKBgNVBAgTA0lERjEOMAwGA1UEBxMFUGFyaXMxLzAtBgNVBAoTJkxvY2FsIE5P
REUtT1BDVUEgQ2VydGlmaWNhdGUgQXV0aG9yaXR5MRUwEwYDVQQDEwxOb2RlT1BD
VUEtQ0EwIhgPMjAxODA5MDMxMDQ0MzZaGA8yMDE5MDkwMzEwNDQzNlowNTELMAkG
A1UEBhMCRlIxEjAQBgNVBAoMCU5vZGVPUENVQTESMBAGA1UEAwwJTm9kZU9QQ1VB
MIIBIjANBgkqhkiG9w0BAQEFAAOCAQ8AMIIBCgKCAQEA9CJDZM1XprbuiJXGc+T7
yc3ZZU022KOAD0Tu4G/3miAkxBTcedD8Glm+bQMqNs3jQwRZxdHRwLxkCbQMHZAw
hZ3NAjq69sD6YS9XoHgCuRa8wnNeaUopbg4IKTdLzclI9vRAhMNHPQWpbs32O79O
9VKVvvjwNzj9rhCJTIb9lkuKaHYzn0ZOGhYUZdgCLmXJgSA1yC0SzmyoTLIZ6NGb
oWEtdEajB2pRGAjbFrhq90VrZzLAhH+yQVoaRuvfaORUP4l3f3ExlRCgY6P63TfL
YGtoNnEunUwXl7URZLD2qKg1EjgWSphiqzLq8YIpydwmeUhtoKmoy7Ui9NJSz+76
wwIDAQABo4IBhjCCAYIwDAYDVR0TAQH/BAIwADAdBgNVHQ4EFgQU04+fDjVzZXYs
vjHnpzaXb7wyrZswgaUGA1UdIwSBnTCBmoAU04FO2cZhF2xHqA2DNvi6fiz4tquh
d6R1MHMxCzAJBgNVBAYTAkZSMQwwCgYDVQQIEwNJREYxDjAMBgNVBAcTBVBhcmlz
MS8wLQYDVQQKEyZMb2NhbCBOT0RFLU9QQ1VBIENlcnRpZmljYXRlIEF1dGhvcml0
eTEVMBMGA1UEAxMMTm9kZU9QQ1VBLUNBggkAhnHX7nESq+4wSwYDVR0RBEQwQoYk
dXJuOk5CNURTQ1I1MDMxOTFOQjpOb2RlT1BDVUEtU2VydmVygglsb2NhbGhvc3SC
D05CNURTQ1I1MDMxOTFOQjAsBglghkgBhvhCAQ0EHxYdT3BlblNTTCBHZW5lcmF0
ZWQgQ2VydGlmaWNhdGUwDgYDVR0PAQH/BAQDAgL8MCAGA1UdJQEB/wQWMBQGCCsG
AQUFBwMBBggrBgEFBQcDAjANBgkqhkiG9w0BAQsFAAOCAQEANMT3ytGgcRS4lQPT
A++ihVISmzmlhQ4nsslsfpqVhtwF1zpC5UMls7FmwcPy7z9G/ZEuMALVs7JsRpUh
0HP4RVAvrgCGoUQX8si7enQFw9MoPQbuIZtQXZKGgCPsE4qj1fo2/RorYlIOQGK1
l7txfbPXNCwyKkzXjZIVemkKcR0GNtZybkh+wWpYvvrEr+0HqBT8DkHXj62GIfFY
eY6tS+NnpASIcMm7g/CKywkXiADUGYxAdI6UXjkNjdczUb0V3DhUUjRxZBo6KaeT
DKIGhwSk2W2Syj0VpIMcHbat2DZE3Dsb7OvEsyys284PKCm3UfmCm+hLVe7kS3yE
1d8ZuA==
-----END CERTIFICATE-----
-----BEGIN CERTIFICATE-----
MIIE3TCCA8WgAwIBAgIJAIZx1+5xEqvuMA0GCSqGSIb3DQEBCwUAMHMxCzAJBgNV
BAYTAkZSMQwwCgYDVQQIEwNJREYxDjAMBgNVBAcTBVBhcmlzMS8wLQYDVQQKEyZM
b2NhbCBOT0RFLU9QQ1VBIENlcnRpZmljYXRlIEF1dGhvcml0eTEVMBMGA1UEAxMM
Tm9kZU9QQ1VBLUNBMB4XDTE4MDkwNDEwNDQzNloXDTI4MDkwMTEwNDQzNlowczEL
MAkGA1UEBhMCRlIxDDAKBgNVBAgTA0lERjEOMAwGA1UEBxMFUGFyaXMxLzAtBgNV
BAoTJkxvY2FsIE5PREUtT1BDVUEgQ2VydGlmaWNhdGUgQXV0aG9yaXR5MRUwEwYD
VQQDEwxOb2RlT1BDVUEtQ0EwggEiMA0GCSqGSIb3DQEBAQUAA4IBDwAwggEKAoIB
AQColur2grJIwgvIa+oBludwyEkPp9y+VBrcsOYTDTcczEq8aJ4U/s6Iyzr/VSXZ
Va4lAhEozf+pQ9rGR6wdF7qieeiTqlma0gZLbTqgjr2sYONPlFNb4VW2xOkopCvp
7EAszJaqPYh/0PsHjY3m771dXf1y6aOMuK0VxdYsDgtDsBQgwoFpIIJE76wB+6Yp
z2NQW0BDDnb82/EEdTlunR4QKWY3jKoq8r15DNEPV+vTs9yfX+UeCHeAvmlUITgY
7F9wJyyN0MStftI24zSx2FfCXwh5FOG9MiDN1T2Wt5qV1sdgeqftM787P0lMVfdm
rn6WyM9Cx1grrm6BPblqqU2hAgMBAAGjggFyMIIBbjAdBgNVHQ4EFgQU04FO2cZh
F2xHqA2DNvi6fiz4tqswgaUGA1UdIwSBnTCBmoAU04FO2cZhF2xHqA2DNvi6fiz4
tquhd6R1MHMxCzAJBgNVBAYTAkZSMQwwCgYDVQQIEwNJREYxDjAMBgNVBAcTBVBh
cmlzMS8wLQYDVQQKEyZMb2NhbCBOT0RFLU9QQ1VBIENlcnRpZmljYXRlIEF1dGhv
cml0eTEVMBMGA1UEAxMMTm9kZU9QQ1VBLUNBggkAhnHX7nESq+4wDAYDVR0TBAUw
AwEB/zAOBgNVHQ8BAf8EBAMCAQYwVwYJYIZIAYb4QgENBEoWSENBIENlcnRpZmlj
YXRlIGdlbmVyYXRlZCBieSBOb2RlLU9QQ1VBIENlcnRpZmljYXRlIHV0aWxpdHkg
dXNpbmcgb3BlbnNzbDAuBgNVHR8EJzAlMCOgIaAfhh1odHRwOi8vbG9jYWxob3N0
Ojg5MDAvY3JsLnBlbTANBgkqhkiG9w0BAQsFAAOCAQEARD1ZjMPVEnBsS8seoB0Y
/z/2lKSwq7Fz9arJqB2KIwLZ8WxoFKzAZ+NJlMZjlauSyZbPeKDDAjf7/JSTWZ0V
cCcRytR8Nc8Ldg861NlExDHr8koDg5atJVlqETbefVyL9abzBS6AyLyCeB+xuZ5r
Y3pvFIuhkjvt3eDdJ2JUeJRLOnDsnEHRYnVR+oANcbyFQsUAVcMPB+A6I+dPuvcw
7jH6Hu24jnsArZwXzXN6H4XBwv/wEZhy+pxPGBGsl8WBhfvoj7O9TMbKwnfkpfic
A3MpP/pG5kmO1oUlrY9dIsN7voKQfYfT3VAGtxNeLiK3wAJ1oxfiFeqr6nyJsjES
lA==
-----END CERTIFICATE-----
