Certificate Request:
    Data:
        Version: 0 (0x0)
        Subject: C=FR, O=NodeOPCUA, CN=NodeOPCUA
        Subject Public Key Info:
            Public Key Algorithm: rsaEncryption
                Public-Key: (2048 bit)
                Modulus:
                    00:f4:22:43:64:cd:57:a6:b6:ee:88:95:c6:73:e4:
                    fb:c9:cd:d9:65:4d:36:d8:a3:80:0f:44:ee:e0:6f:
                    f7:9a:20:24:c4:14:dc:79:d0:fc:1a:59:be:6d:03:
                    2a:36:cd:e3:43:04:59:c5:d1:d1:c0:bc:64:09:b4:
                    0c:1d:90:30:85:9d:cd:02:3a:ba:f6:c0:fa:61:2f:
                    57:a0:78:02:b9:16:bc:c2:73:5e:69:4a:29:6e:0e:
                    08:29:37:4b:cd:c9:48:f6:f4:40:84:c3:47:3d:05:
                    a9:6e:cd:f6:3b:bf:4e:f5:52:95:be:f8:f0:37:38:
                    fd:ae:10:89:4c:86:fd:96:4b:8a:68:76:33:9f:46:
                    4e:1a:16:14:65:d8:02:2e:65:c9:81:20:35:c8:2d:
                    12:ce:6c:a8:4c:b2:19:e8:d1:9b:a1:61:2d:74:46:
                    a3:07:6a:51:18:08:db:16:b8:6a:f7:45:6b:67:32:
                    c0:84:7f:b2:41:5a:1a:46:eb:df:68:e4:54:3f:89:
                    77:7f:71:31:95:10:a0:63:a3:fa:dd:37:cb:60:6b:
                    68:36:71:2e:9d:4c:17:97:b5:11:64:b0:f6:a8:a8:
                    35:12:38:16:4a:98:62:ab:32:ea:f1:82:29:c9:dc:
                    26:79:48:6d:a0:a9:a8:cb:b5:22:f4:d2:52:cf:ee:
                    fa:c3
                Exponent: 65537 (0x10001)
        Attributes:
        Requested Extensions:
            X509v3 Basic Constraints: 
                CA:FALSE
            X509v3 Key Usage: critical
                Certificate Sign, CRL Sign
            X509v3 Subject Alternative Name: 
                URI:undefined
    Signature Algorithm: sha256WithRSAEncryption
         e1:7e:ff:f3:1a:92:7f:93:e2:c5:14:2e:bf:29:eb:42:0d:4d:
         21:2c:80:8a:1b:a4:99:fa:66:e2:bf:c8:3c:72:2f:14:b5:d0:
         e2:cf:b2:9b:4c:20:ba:99:e4:86:e5:c7:a6:ee:53:9d:e6:08:
         7e:a9:ea:91:7c:94:de:d4:68:3c:3b:54:06:00:4a:cf:a9:bd:
         ac:90:28:4f:3b:e0:de:65:0d:4c:3a:51:b4:c6:f5:36:8d:cb:
         87:48:53:8f:40:9c:e7:b4:96:bf:be:2f:a8:e8:b9:8c:8f:6c:
         f6:85:48:a7:8f:a3:bd:f5:d1:2d:c9:04:76:25:1b:9f:d6:80:
         57:bc:56:b5:bd:4c:65:9e:f2:4a:5c:b6:94:73:63:35:00:e8:
         a5:1f:86:3e:ac:14:21:b2:31:a7:a1:13:5a:0b:11:48:a3:2b:
         f0:bf:f2:4f:e5:23:9f:aa:b3:0b:7f:46:ed:0f:23:a8:04:17:
         f5:38:bf:fa:ef:c0:ce:40:65:c8:15:8e:ce:7b:70:0c:d4:20:
         77:d2:e3:6c:b2:d3:97:d9:86:70:a8:f4:f0:b9:94:11:1a:2f:
         16:86:f2:be:63:83:3c:b5:5b:bb:19:1c:98:2b:0c:5c:29:ab:
         a7:c5:e5:42:55:5e:2d:5d:2c:f1:ae:5a:97:f1:c9:79:b7:8b:
         06:5d:5f:2a
-----BEGIN CERTIFICATE REQUEST-----
MIICvDCCAaQCAQAwNTELMAkGA1UEBhMCRlIxEjAQBgNVBAoMCU5vZGVPUENVQTES
MBAGA1UEAwwJTm9kZU9QQ1VBMIIBIjANBgkqhkiG9w0BAQEFAAOCAQ8AMIIBCgKC
AQEA9CJDZM1XprbuiJXGc+T7yc3ZZU022KOAD0Tu4G/3miAkxBTcedD8Glm+bQMq
Ns3jQwRZxdHRwLxkCbQMHZAwhZ3NAjq69sD6YS9XoHgCuRa8wnNeaUopbg4IKTdL
zclI9vRAhMNHPQWpbs32O79O9VKVvvjwNzj9rhCJTIb9lkuKaHYzn0ZOGhYUZdgC
LmXJgSA1yC0SzmyoTLIZ6NGboWEtdEajB2pRGAjbFrhq90VrZzLAhH+yQVoaRuvf
aORUP4l3f3ExlRCgY6P63TfLYGtoNnEunUwXl7URZLD2qKg1EjgWSphiqzLq8YIp
ydwmeUhtoKmoy7Ui9NJSz+76wwIDAQABoEIwQAYJKoZIhvcNAQkOMTMwMTAJBgNV
HRMEAjAAMA4GA1UdDwEB/wQEAwIBBjAUBgNVHREEDTALhgl1bmRlZmluZWQwDQYJ
KoZIhvcNAQELBQADggEBAOF+//Makn+T4sUULr8p60INTSEsgIobpJn6ZuK/yDxy
LxS10OLPsptMILqZ5Iblx6buU53mCH6p6pF8lN7UaDw7VAYASs+pvayQKE874N5l
DUw6UbTG9TaNy4dIU49AnOe0lr++L6jouYyPbPaFSKePo7310S3JBHYlG5/WgFe8
VrW9TGWe8kpctpRzYzUA6KUfhj6sFCGyMaehE1oLEUijK/C/8k/lI5+qswt/Ru0P
I6gEF/U4v/rvwM5AZcgVjs57cAzUIHfS42yy05fZhnCo9PC5lBEaLxaG8r5jgzy1
W7sZHJgrDFwpq6fF5UJVXi1dLPGuWpfxyXm3iwZdXyo=
-----END CERTIFICATE REQUEST-----
