Certificate:
    Data:
        Version: 3 (0x2)
        Serial Number: 4100 (0x1004)
    Signature Algorithm: sha256WithRSAEncryption
        Issuer: C=FR, ST=IDF, L=Paris, O=Local NODE-OPCUA Certificate Authority, CN=NodeOPCUA-CA
        Validity
            Not Before: Aug 30 09:25:25 2017 GMT
            Not After : Aug 30 09:25:25 2018 GMT
        Subject: C=FR, O=NodeOPCUA, CN=NodeOPCUA
        Subject Public Key Info:
            Public Key Algorithm: rsaEncryption
                Public-Key: (1024 bit)
                Modulus:
                    00:d8:ab:81:1c:48:4b:04:da:9a:8c:2c:c1:7b:48:
                    9f:0d:21:fe:1a:66:ff:b7:f9:95:b5:f7:0c:32:e9:
                    b7:a1:0b:01:14:9a:94:39:fc:20:17:a4:c2:3c:34:
                    90:1f:aa:56:50:32:65:2f:37:4c:80:f3:5e:ab:a5:
                    a0:71:34:e6:20:6e:78:1c:c9:ea:a8:fb:56:dd:35:
                    29:95:78:4f:37:fe:18:91:1f:71:78:c6:ca:cb:3d:
                    9b:0e:1a:c3:ac:52:91:28:84:d5:1d:0e:cd:ce:02:
                    86:d1:88:27:fc:ec:6e:dc:63:32:21:93:e6:80:30:
                    0f:90:5a:b5:e4:e7:5b:d7:09
                Exponent: 65537 (0x10001)
        X509v3 extensions:
            X509v3 Basic Constraints: critical
                CA:FALSE
            X509v3 Subject Key Identifier: 
                CB:A5:50:2B:6A:DC:17:01:4F:D3:18:1F:16:12:DE:71:A8:14:3E:89
            X509v3 Authority Key Identifier: 
                keyid:84:FF:9C:93:B1:D0:E8:CE:A2:B6:D0:C9:6C:1E:04:B4:6E:43:47:DF
                DirName:/C=FR/ST=IDF/L=Paris/O=Local NODE-OPCUA Certificate Authority/CN=NodeOPCUA-CA
                serial:8D:7E:27:B2:25:30:DA:6F

            X509v3 Subject Alternative Name: 
                URI:urn:MUCKI:NodeOPCUA-Server, DNS:localhost, DNS:MUCKI
            Netscape Comment: 
                OpenSSL Generated Certificate
            X509v3 Key Usage: critical
                Digital Signature, Non Repudiation, Key Encipherment, Data Encipherment, Key Agreement, Certificate Sign
            X509v3 Extended Key Usage: critical
                TLS Web Server Authentication, TLS Web Client Authentication
    Signature Algorithm: sha256WithRSAEncryption
         54:c2:ad:60:23:f0:f1:51:d0:62:a5:d2:43:c4:2b:be:b8:26:
         94:af:cd:bf:98:01:19:ca:d8:18:dd:83:b8:39:fd:db:da:f2:
         09:98:5d:2c:9a:ad:e9:80:dd:49:96:6b:2b:e9:0e:45:1d:a6:
         87:40:b1:9a:4c:a5:90:a1:fd:68:29:40:fc:65:9c:42:c6:db:
         f9:e8:aa:78:56:8f:4b:7a:b3:d0:66:b9:40:23:f6:b9:47:27:
         02:52:4d:3f:ea:42:f0:0b:d7:0d:32:30:af:f9:c7:a5:89:5f:
         cd:a1:82:7e:40:eb:44:27:91:2b:52:96:76:62:c2:c8:75:06:
         6e:1d:d1:a1:46:15:70:b4:fb:40:60:67:b7:27:b1:67:eb:d9:
         f5:bd:53:2f:2e:bc:6d:8a:57:23:e0:23:c7:93:27:c6:3b:ad:
         be:bb:36:53:e9:46:08:d4:ed:c7:db:14:a4:21:c6:bf:43:58:
         88:77:d2:1f:43:5f:45:98:45:8d:bb:a4:dc:04:7c:2f:59:f2:
         76:a0:70:dc:a0:4f:90:9e:9e:0d:89:74:62:24:5f:a7:4f:0f:
         e9:20:e9:72:06:a5:32:65:5d:ad:5e:6c:c6:3a:75:5a:c3:80:
         4a:a7:c8:a4:10:7e:91:72:cc:74:60:36:62:20:8d:50:2e:07:
         84:2f:1d:09
-----BEGIN CERTIFICATE-----
MIIEGDCCAwCgAwIBAgICEAQwDQYJKoZIhvcNAQELBQAwczELMAkGA1UEBhMCRlIx
DDAKBgNVBAgTA0lERjEOMAwGA1UEBxMFUGFyaXMxLzAtBgNVBAoTJkxvY2FsIE5P
REUtT1BDVUEgQ2VydGlmaWNhdGUgQXV0aG9yaXR5MRUwEwYDVQQDEwxOb2RlT1BD
VUEtQ0EwIhgPMjAxNzA4MzAwOTI1MjVaGA8yMDE4MDgzMDA5MjUyNVowNTELMAkG
A1UEBhMCRlIxEjAQBgNVBAoMCU5vZGVPUENVQTESMBAGA1UEAwwJTm9kZU9QQ1VB
MIGfMA0GCSqGSIb3DQEBAQUAA4GNADCBiQKBgQDYq4EcSEsE2pqMLMF7SJ8NIf4a
Zv+3+ZW19wwy6behCwEUmpQ5/CAXpMI8NJAfqlZQMmUvN0yA816rpaBxNOYgbngc
yeqo+1bdNSmVeE83/hiRH3F4xsrLPZsOGsOsUpEohNUdDs3OAobRiCf87G7cYzIh
k+aAMA+QWrXk51vXCQIDAQABo4IBcjCCAW4wDAYDVR0TAQH/BAIwADAdBgNVHQ4E
FgQUy6VQK2rcFwFP0xgfFhLecagUPokwgaUGA1UdIwSBnTCBmoAUhP+ck7HQ6M6i
ttDJbB4EtG5DR9+hd6R1MHMxCzAJBgNVBAYTAkZSMQwwCgYDVQQIEwNJREYxDjAM
BgNVBAcTBVBhcmlzMS8wLQYDVQQKEyZMb2NhbCBOT0RFLU9QQ1VBIENlcnRpZmlj
YXRlIEF1dGhvcml0eTEVMBMGA1UEAxMMTm9kZU9QQ1VBLUNBggkAjX4nsiUw2m8w
NwYDVR0RBDAwLoYadXJuOk1VQ0tJOk5vZGVPUENVQS1TZXJ2ZXKCCWxvY2FsaG9z
dIIFTVVDS0kwLAYJYIZIAYb4QgENBB8WHU9wZW5TU0wgR2VuZXJhdGVkIENlcnRp
ZmljYXRlMA4GA1UdDwEB/wQEAwIC/DAgBgNVHSUBAf8EFjAUBggrBgEFBQcDAQYI
KwYBBQUHAwIwDQYJKoZIhvcNAQELBQADggEBAFTCrWAj8PFR0GKl0kPEK764JpSv
zb+YARnK2Bjdg7g5/dva8gmYXSyaremA3UmWayvpDkUdpodAsZpMpZCh/WgpQPxl
nELG2/noqnhWj0t6s9BmuUAj9rlHJwJSTT/qQvAL1w0yMK/5x6WJX82hgn5A60Qn
kStSlnZiwsh1Bm4d0aFGFXC0+0BgZ7cnsWfr2fW9Uy8uvG2KVyPgI8eTJ8Y7rb67
NlPpRgjU7cfbFKQhxr9DWIh30h9DX0WYRY27pNwEfC9Z8nagcNygT5Ceng2JdGIk
X6dPD+kg6XIGpTJlXa1ebMY6dVrDgEqnyKQQfpFyzHRgNmIgjVAuB4QvHQk=
-----END CERTIFICATE-----
-----BEGIN CERTIFICATE-----
MIIE3TCCA8WgAwIBAgIJAI1+J7IlMNpvMA0GCSqGSIb3DQEBCwUAMHMxCzAJBgNV
BAYTAkZSMQwwCgYDVQQIEwNJREYxDjAMBgNVBAcTBVBhcmlzMS8wLQYDVQQKEyZM
b2NhbCBOT0RFLU9QQ1VBIENlcnRpZmljYXRlIEF1dGhvcml0eTEVMBMGA1UEAxMM
Tm9kZU9QQ1VBLUNBMB4XDTE3MDgzMTA5MjUyNloXDTI3MDgyOTA5MjUyNlowczEL
MAkGA1UEBhMCRlIxDDAKBgNVBAgTA0lERjEOMAwGA1UEBxMFUGFyaXMxLzAtBgNV
BAoTJkxvY2FsIE5PREUtT1BDVUEgQ2VydGlmaWNhdGUgQXV0aG9yaXR5MRUwEwYD
VQQDEwxOb2RlT1BDVUEtQ0EwggEiMA0GCSqGSIb3DQEBAQUAA4IBDwAwggEKAoIB
AQDG3v8admiXUVX1VCe/h9RQi7VbUfxK2lWcIIp4BgGYLQiyIh0sK9sba2b0tlO9
fIeSQuwWQlNKSE0ElEXUYmSWnpqUhZWjG6QZvE+VEJ5pIlYZNk4ABql15HaqoA6A
ZpUZnj9VQcK7C8S/A9WF/rOu3KxCNbwX0O3yR/zSzCqBGTcvE9EXvXC9X5rB7BKo
y7xqduE/bAhfgDnR0wHFX8M7PgId6LpF8+NWl8C7ApVcMxDYmiDO+P98EexuLyZp
KxGFuBT2mmb/YOOmZJ6CqorcDF43HHjtB2pybt9aCQkr1L9RFhdwKZVpSBTurlFh
YYxRzck1795Zb3CaQ1XJZEVNAgMBAAGjggFyMIIBbjAdBgNVHQ4EFgQUhP+ck7HQ
6M6ittDJbB4EtG5DR98wgaUGA1UdIwSBnTCBmoAUhP+ck7HQ6M6ittDJbB4EtG5D
R9+hd6R1MHMxCzAJBgNVBAYTAkZSMQwwCgYDVQQIEwNJREYxDjAMBgNVBAcTBVBh
cmlzMS8wLQYDVQQKEyZMb2NhbCBOT0RFLU9QQ1VBIENlcnRpZmljYXRlIEF1dGhv
cml0eTEVMBMGA1UEAxMMTm9kZU9QQ1VBLUNBggkAjX4nsiUw2m8wDAYDVR0TBAUw
AwEB/zAOBgNVHQ8BAf8EBAMCAQYwVwYJYIZIAYb4QgENBEoWSENBIENlcnRpZmlj
YXRlIGdlbmVyYXRlZCBieSBOb2RlLU9QQ1VBIENlcnRpZmljYXRlIHV0aWxpdHkg
dXNpbmcgb3BlbnNzbDAuBgNVHR8EJzAlMCOgIaAfhh1odHRwOi8vbG9jYWxob3N0
Ojg5MDAvY3JsLnBlbTANBgkqhkiG9w0BAQsFAAOCAQEASuoPMYtdxzTU5UuaU7Sr
nXmqqFLaPfFChdBdCiVqA+ZayhDHmrn1+D4zTHQ6fs7eSnoBtABSOlE2NoGFE+or
aC/oienkp48m/+2gx0Hi5blY0by0hSC/YAhMAJsOArfPB/Ma/O6+phMtudeaE42Q
qyUBqnRzH/J5LCzqfJlWm0mu26MVuyZxNWx4TMALPZFLT5AxHKd2VvUVssVWwBPb
rr29Pycy7/VuELsBVk37u449oZVdZk8NTfemKpb5VymSIaxhJGT4GN4oXkgp3kP4
+H/2p5sEVWeYB0e0EkagIQP2TpYSFqemdai4raNH7mTNfMaLwzfdhEtChV42de71
bQ==
-----END CERTIFICATE-----
