Certificate:
    Data:
        Version: 3 (0x2)
        Serial Number: 4101 (0x1005)
    Signature Algorithm: sha256WithRSAEncryption
        Issuer: O=NodeOPCUA, CN=NodeOPCUA
        Validity
            Not Before: Aug 30 09:25:25 2017 GMT
            Not After : Aug 30 09:25:25 2018 GMT
        Subject: O=NodeOPCUA, CN=NodeOPCUA
        Subject Public Key Info:
            Public Key Algorithm: rsaEncryption
                Public-Key: (1024 bit)
                Modulus:
                    00:d8:ab:81:1c:48:4b:04:da:9a:8c:2c:c1:7b:48:
                    9f:0d:21:fe:1a:66:ff:b7:f9:95:b5:f7:0c:32:e9:
                    b7:a1:0b:01:14:9a:94:39:fc:20:17:a4:c2:3c:34:
                    90:1f:aa:56:50:32:65:2f:37:4c:80:f3:5e:ab:a5:
                    a0:71:34:e6:20:6e:78:1c:c9:ea:a8:fb:56:dd:35:
                    29:95:78:4f:37:fe:18:91:1f:71:78:c6:ca:cb:3d:
                    9b:0e:1a:c3:ac:52:91:28:84:d5:1d:0e:cd:ce:02:
                    86:d1:88:27:fc:ec:6e:dc:63:32:21:93:e6:80:30:
                    0f:90:5a:b5:e4:e7:5b:d7:09
                Exponent: 65537 (0x10001)
        X509v3 extensions:
            X509v3 Basic Constraints: critical
                CA:FALSE
            X509v3 Subject Key Identifier: 
                CB:A5:50:2B:6A:DC:17:01:4F:D3:18:1F:16:12:DE:71:A8:14:3E:89
            X509v3 Authority Key Identifier: 
                keyid:CB:A5:50:2B:6A:DC:17:01:4F:D3:18:1F:16:12:DE:71:A8:14:3E:89
                DirName:/O=NodeOPCUA/CN=NodeOPCUA
                serial:10:05

            X509v3 Subject Alternative Name: 
                URI:urn:MUCKI:NodeOPCUA-Server, DNS:localhost, DNS:MUCKI
            Netscape Comment: 
                OpenSSL Generated Certificate
            X509v3 Key Usage: critical
                Digital Signature, Non Repudiation, Key Encipherment, Data Encipherment, Key Agreement, Certificate Sign
            X509v3 Extended Key Usage: critical
                TLS Web Server Authentication, TLS Web Client Authentication
    Signature Algorithm: sha256WithRSAEncryption
         20:46:8c:90:cb:16:75:46:66:06:6d:80:7f:af:11:44:1d:a4:
         20:7a:31:39:14:ca:84:4a:ea:89:7e:45:6c:a9:6b:5b:9a:41:
         eb:81:1f:df:52:23:f9:0e:a7:65:61:71:a4:67:24:ec:90:62:
         8a:38:92:b0:fb:fd:97:87:a8:32:a4:8e:ab:6d:a1:bd:68:6f:
         5e:04:ef:05:05:af:83:90:57:0d:d1:95:8e:a1:67:b3:f5:2a:
         22:e6:9f:7c:3f:7c:cc:e3:bc:ea:41:3d:f3:9f:5e:42:2b:ea:
         c6:a4:d1:ff:b8:a2:be:d6:d6:ee:f9:f2:3b:1f:4f:3e:ce:15:
         4d:e0
-----BEGIN CERTIFICATE-----
MIIC6jCCAlOgAwIBAgICEAUwDQYJKoZIhvcNAQELBQAwKDESMBAGA1UEChMJTm9k
ZU9QQ1VBMRIwEAYDVQQDEwlOb2RlT1BDVUEwIhgPMjAxNzA4MzAwOTI1MjVaGA8y
MDE4MDgzMDA5MjUyNVowKDESMBAGA1UEChMJTm9kZU9QQ1VBMRIwEAYDVQQDEwlO
b2RlT1BDVUEwgZ8wDQYJKoZIhvcNAQEBBQADgY0AMIGJAoGBANirgRxISwTamows
wXtInw0h/hpm/7f5lbX3DDLpt6ELARSalDn8IBekwjw0kB+qVlAyZS83TIDzXqul
oHE05iBueBzJ6qj7Vt01KZV4Tzf+GJEfcXjGyss9mw4aw6xSkSiE1R0Ozc4ChtGI
J/zsbtxjMiGT5oAwD5BateTnW9cJAgMBAAGjggEdMIIBGTAMBgNVHRMBAf8EAjAA
MB0GA1UdDgQWBBTLpVAratwXAU/TGB8WEt5xqBQ+iTBRBgNVHSMESjBIgBTLpVAr
atwXAU/TGB8WEt5xqBQ+iaEspCowKDESMBAGA1UEChMJTm9kZU9QQ1VBMRIwEAYD
VQQDEwlOb2RlT1BDVUGCAhAFMDcGA1UdEQQwMC6GGnVybjpNVUNLSTpOb2RlT1BD
VUEtU2VydmVygglsb2NhbGhvc3SCBU1VQ0tJMCwGCWCGSAGG+EIBDQQfFh1PcGVu
U1NMIEdlbmVyYXRlZCBDZXJ0aWZpY2F0ZTAOBgNVHQ8BAf8EBAMCAvwwIAYDVR0l
AQH/BBYwFAYIKwYBBQUHAwEGCCsGAQUFBwMCMA0GCSqGSIb3DQEBCwUAA4GBACBG
jJDLFnVGZgZtgH+vEUQdpCB6MTkUyoRK6ol+RWypa1uaQeuBH99SI/kOp2VhcaRn
JOyQYoo4krD7/ZeHqDKkjqttob1ob14E7wUFr4OQVw3RlY6hZ7P1KiLmn3w/fMzj
vOpBPfOfXkIr6sak0f+4or7W1u758jsfTz7OFU3g
-----END CERTIFICATE-----
