Certificate:
    Data:
        Version: 3 (0x2)
        Serial Number: 4101 (0x1005)
    Signature Algorithm: sha256WithRSAEncryption
        Issuer: O=NodeOPCUA, CN=NodeOPCUA
        Validity
            Not Before: Sep  3 10:44:36 2018 GMT
            Not After : Sep  3 10:44:36 2019 GMT
        Subject: O=NodeOPCUA, CN=NodeOPCUA
        Subject Public Key Info:
            Public Key Algorithm: rsaEncryption
                Public-Key: (1024 bit)
                Modulus:
                    00:d7:62:8c:5c:c7:de:3c:0e:ae:f9:fa:79:7e:fa:
                    a3:44:71:25:45:1e:37:30:9c:ee:c9:2d:12:52:c5:
                    ee:92:ce:b3:88:c0:a6:f8:a9:7d:02:01:a0:78:60:
                    3a:af:f1:ac:51:3d:dd:38:89:0f:28:28:9c:6b:ab:
                    fc:13:fe:82:42:d8:1d:eb:4a:60:c1:0d:90:46:43:
                    d7:73:c7:a3:bf:c3:ec:aa:67:c9:a5:56:85:2c:49:
                    3f:1d:d8:f8:f8:d0:5e:c0:47:96:c2:f8:87:6b:8d:
                    7b:14:ed:b6:d9:47:b7:08:b0:83:ac:2e:ba:05:ce:
                    d0:e8:9c:2c:95:32:e9:cc:a1
                Exponent: 65537 (0x10001)
        X509v3 extensions:
            X509v3 Basic Constraints: critical
                CA:FALSE
            X509v3 Subject Key Identifier: 
                2E:F5:E6:A9:D8:9E:0C:0D:07:B5:6E:97:6F:8E:F2:34:56:8F:66:92
            X509v3 Authority Key Identifier: 
                keyid:2E:F5:E6:A9:D8:9E:0C:0D:07:B5:6E:97:6F:8E:F2:34:56:8F:66:92
                DirName:/O=NodeOPCUA/CN=NodeOPCUA
                serial:10:05

            X509v3 Subject Alternative Name: 
                URI:urn:NB5DSCR503191NB:NodeOPCUA-Server, DNS:localhost, DNS:NB5DSCR503191NB
            Netscape Comment: 
                OpenSSL Generated Certificate
            X509v3 Key Usage: critical
                Digital Signature, Non Repudiation, Key Encipherment, Data Encipherment, Key Agreement, Certificate Sign
            X509v3 Extended Key Usage: critical
                TLS Web Server Authentication, TLS Web Client Authentication
    Signature Algorithm: sha256WithRSAEncryption
         9b:df:08:a8:7f:4b:0f:e0:77:2b:7b:24:2f:e9:31:93:e2:cf:
         91:10:28:f4:a1:e8:d0:0f:31:93:b0:1d:52:17:c2:be:8a:57:
         9e:ea:bc:f6:15:9c:d6:28:73:2a:cb:37:45:24:78:ff:c0:96:
         9e:dc:46:bc:7c:dd:59:0e:56:c5:36:6a:82:11:75:ae:d3:9f:
         8d:2e:b8:e3:4b:83:52:63:06:c3:f3:ac:20:59:cf:65:c3:84:
         59:cb:89:e1:21:3b:a0:1e:80:a9:6f:bc:57:ec:a5:8a:c4:43:
         8b:0e:80:6b:2b:29:9d:6b:6e:44:36:61:17:99:56:71:c7:d1:
         71:6a
-----BEGIN CERTIFICATE-----
MIIC/jCCAmegAwIBAgICEAUwDQYJKoZIhvcNAQELBQAwKDESMBAGA1UEChMJTm9k
ZU9QQ1VBMRIwEAYDVQQDEwlOb2RlT1BDVUEwIhgPMjAxODA5MDMxMDQ0MzZaGA8y
MDE5MDkwMzEwNDQzNlowKDESMBAGA1UEChMJTm9kZU9QQ1VBMRIwEAYDVQQDEwlO
b2RlT1BDVUEwgZ8wDQYJKoZIhvcNAQEBBQADgY0AMIGJAoGBANdijFzH3jwOrvn6
eX76o0RxJUUeNzCc7sktElLF7pLOs4jApvipfQIBoHhgOq/xrFE93TiJDygonGur
/BP+gkLYHetKYMENkEZD13PHo7/D7KpnyaVWhSxJPx3Y+PjQXsBHlsL4h2uNexTt
ttlHtwiwg6wuugXO0OicLJUy6cyhAgMBAAGjggExMIIBLTAMBgNVHRMBAf8EAjAA
MB0GA1UdDgQWBBQu9eap2J4MDQe1bpdvjvI0Vo9mkjBRBgNVHSMESjBIgBQu9eap
2J4MDQe1bpdvjvI0Vo9mkqEspCowKDESMBAGA1UEChMJTm9kZU9QQ1VBMRIwEAYD
VQQDEwlOb2RlT1BDVUGCAhAFMEsGA1UdEQREMEKGJHVybjpOQjVEU0NSNTAzMTkx
TkI6Tm9kZU9QQ1VBLVNlcnZlcoIJbG9jYWxob3N0gg9OQjVEU0NSNTAzMTkxTkIw
LAYJYIZIAYb4QgENBB8WHU9wZW5TU0wgR2VuZXJhdGVkIENlcnRpZmljYXRlMA4G
A1UdDwEB/wQEAwIC/DAgBgNVHSUBAf8EFjAUBggrBgEFBQcDAQYIKwYBBQUHAwIw
DQYJKoZIhvcNAQELBQADgYEAm98IqH9LD+B3K3skL+kxk+LPkRAo9KHo0A8xk7Ad
UhfCvopXnuq89hWc1ihzKss3RSR4/8CWntxGvHzdWQ5WxTZqghF1rtOfjS6440uD
UmMGw/OsIFnPZcOEWcuJ4SE7oB6AqW+8V+ylisRDiw6AayspnWtuRDZhF5lWccfR
cWo=
-----END CERTIFICATE-----
