Certificate:
    Data:
        Version: 3 (0x2)
        Serial Number: 4103 (0x1007)
    Signature Algorithm: sha256WithRSAEncryption
        Issuer: O=NodeOPCUA, CN=NodeOPCUA
        Validity
            Not Before: Aug 30 09:25:25 2017 GMT
            Not After : Aug 30 09:25:25 2018 GMT
        Subject: O=NodeOPCUA, CN=NodeOPCUA
        Subject Public Key Info:
            Public Key Algorithm: rsaEncryption
                Public-Key: (2048 bit)
                Modulus:
                    00:e1:90:8c:62:da:90:22:82:2f:99:17:c1:f7:43:
                    fa:9e:fd:46:f9:4b:da:24:42:b2:e6:e2:1c:0e:52:
                    06:d1:a8:61:ed:27:b9:70:5a:6e:a7:b1:bf:3c:18:
                    7b:40:f7:83:38:e4:58:9f:46:2a:0b:a3:e7:ba:2b:
                    3d:06:aa:8b:4c:04:3a:e8:58:94:1e:4b:70:d4:05:
                    c9:ef:be:0b:46:fd:c6:16:b9:d0:a7:40:59:76:8d:
                    76:ff:38:a2:c4:91:d9:d5:32:06:31:e9:8c:ac:10:
                    34:7f:d3:68:d7:c3:f0:3f:d6:09:cf:f1:5e:6f:3a:
                    0d:2c:c3:95:cf:92:28:d0:69:b4:c2:12:88:e5:a3:
                    9a:be:72:80:1a:dc:85:4a:6a:fd:38:6e:1c:8c:98:
                    13:f5:f3:e9:fd:83:f0:3d:ba:f7:dc:98:62:99:e8:
                    66:91:45:99:0e:14:3a:7a:0d:c0:80:ff:a7:61:68:
                    da:d1:1a:29:e0:cc:6f:cb:ef:98:f9:be:cf:4f:37:
                    92:78:48:18:51:c6:35:3a:14:74:1c:d0:f9:74:3f:
                    1b:34:bb:e3:31:02:8d:b3:db:7f:f5:16:7a:21:6d:
                    4f:46:10:cc:89:99:5f:84:ce:8b:09:9c:65:12:17:
                    ef:40:b8:51:bd:af:24:e8:3c:75:3f:6d:7d:b1:cd:
                    e2:0d
                Exponent: 65537 (0x10001)
        X509v3 extensions:
            X509v3 Basic Constraints: critical
                CA:FALSE
            X509v3 Subject Key Identifier: 
                4C:AF:CE:E0:38:87:A1:23:2A:63:72:51:2D:0B:0F:E7:5A:C8:D1:BA
            X509v3 Authority Key Identifier: 
                keyid:4C:AF:CE:E0:38:87:A1:23:2A:63:72:51:2D:0B:0F:E7:5A:C8:D1:BA
                DirName:/O=NodeOPCUA/CN=NodeOPCUA
                serial:10:07

            X509v3 Subject Alternative Name: 
                URI:urn:MUCKI:NodeOPCUA-Server, DNS:localhost, DNS:MUCKI
            Netscape Comment: 
                OpenSSL Generated Certificate
            X509v3 Key Usage: critical
                Digital Signature, Non Repudiation, Key Encipherment, Data Encipherment, Key Agreement, Certificate Sign
            X509v3 Extended Key Usage: critical
                TLS Web Server Authentication, TLS Web Client Authentication
    Signature Algorithm: sha256WithRSAEncryption
         b2:0e:3a:1c:fc:49:1c:58:c5:eb:ff:42:c1:1d:27:a6:ae:66:
         7e:12:1a:af:bf:c4:1a:dc:4b:0a:c7:79:81:f8:c0:95:1f:81:
         43:cf:b3:b3:71:a9:2a:71:50:13:57:b6:34:1b:e9:db:0a:c3:
         6f:8f:48:20:7c:2f:ad:bd:41:6f:5c:e2:8d:38:76:2a:2b:91:
         d2:23:cb:a6:16:61:bc:70:30:fc:a6:fa:f9:5f:2a:05:55:9d:
         2f:ac:99:ea:65:2b:ea:45:20:e9:53:10:a6:b8:d0:ef:41:d2:
         76:d5:6d:a4:ef:04:f7:f4:21:a2:70:a7:33:50:b1:95:1f:6b:
         d3:c1:b5:3a:ef:fb:34:0a:9f:4b:1e:21:d7:ff:7b:86:6c:fa:
         c1:70:e2:f5:ab:6b:1b:8d:bc:f9:bd:97:31:fb:f7:a6:dc:cf:
         c1:0b:43:30:a5:20:20:9b:ab:7e:f2:71:e0:fb:ff:ec:26:97:
         d4:ec:0c:12:36:3f:be:14:87:c3:9d:36:52:d2:3c:50:79:02:
         af:6b:84:24:37:ac:7c:e5:d9:21:c1:9a:11:57:52:5b:33:18:
         7c:51:61:8c:31:97:f6:f1:18:6c:eb:57:47:18:fc:33:d4:e0:
         53:80:fc:dd:14:7d:0a:22:bf:ba:7a:ab:fe:d2:af:76:2a:95:
         23:fa:94:f5
-----BEGIN CERTIFICATE-----
MIID7zCCAtegAwIBAgICEAcwDQYJKoZIhvcNAQELBQAwKDESMBAGA1UEChMJTm9k
ZU9QQ1VBMRIwEAYDVQQDEwlOb2RlT1BDVUEwIhgPMjAxNzA4MzAwOTI1MjVaGA8y
MDE4MDgzMDA5MjUyNVowKDESMBAGA1UEChMJTm9kZU9QQ1VBMRIwEAYDVQQDEwlO
b2RlT1BDVUEwggEiMA0GCSqGSIb3DQEBAQUAA4IBDwAwggEKAoIBAQDhkIxi2pAi
gi+ZF8H3Q/qe/Ub5S9okQrLm4hwOUgbRqGHtJ7lwWm6nsb88GHtA94M45FifRioL
o+e6Kz0GqotMBDroWJQeS3DUBcnvvgtG/cYWudCnQFl2jXb/OKLEkdnVMgYx6Yys
EDR/02jXw/A/1gnP8V5vOg0sw5XPkijQabTCEojlo5q+coAa3IVKav04bhyMmBP1
8+n9g/A9uvfcmGKZ6GaRRZkOFDp6DcCA/6dhaNrRGingzG/L75j5vs9PN5J4SBhR
xjU6FHQc0Pl0Pxs0u+MxAo2z23/1FnohbU9GEMyJmV+EzosJnGUSF+9AuFG9ryTo
PHU/bX2xzeINAgMBAAGjggEdMIIBGTAMBgNVHRMBAf8EAjAAMB0GA1UdDgQWBBRM
r87gOIehIypjclEtCw/nWsjRujBRBgNVHSMESjBIgBRMr87gOIehIypjclEtCw/n
WsjRuqEspCowKDESMBAGA1UEChMJTm9kZU9QQ1VBMRIwEAYDVQQDEwlOb2RlT1BD
VUGCAhAHMDcGA1UdEQQwMC6GGnVybjpNVUNLSTpOb2RlT1BDVUEtU2VydmVyggls
b2NhbGhvc3SCBU1VQ0tJMCwGCWCGSAGG+EIBDQQfFh1PcGVuU1NMIEdlbmVyYXRl
ZCBDZXJ0aWZpY2F0ZTAOBgNVHQ8BAf8EBAMCAvwwIAYDVR0lAQH/BBYwFAYIKwYB
BQUHAwEGCCsGAQUFBwMCMA0GCSqGSIb3DQEBCwUAA4IBAQCyDjoc/EkcWMXr/0LB
HSemrmZ+Ehqvv8Qa3EsKx3mB+MCVH4FDz7OzcakqcVATV7Y0G+nbCsNvj0ggfC+t
vUFvXOKNOHYqK5HSI8umFmG8cDD8pvr5XyoFVZ0vrJnqZSvqRSDpUxCmuNDvQdJ2
1W2k7wT39CGicKczULGVH2vTwbU67/s0Cp9LHiHX/3uGbPrBcOL1q2sbjbz5vZcx
+/em3M/BC0MwpSAgm6t+8nHg+//sJpfU7AwSNj++FIfDnTZS0jxQeQKva4QkN6x8
5dkhwZoRV1JbMxh8UWGMMZf28Rhs61dHGPwz1OBTgPzdFH0KIr+6eqv+0q92KpUj
+pT1
-----END CERTIFICATE-----
