Certificate:
    Data:
        Version: 3 (0x2)
        Serial Number: 4102 (0x1006)
    Signature Algorithm: sha256WithRSAEncryption
        Issuer: C=FR, ST=IDF, L=Paris, O=Local NODE-OPCUA Certificate Authority, CN=NodeOPCUA-CA
        Validity
            Not Before: Aug 30 09:25:25 2017 GMT
            Not After : Aug 30 09:25:25 2018 GMT
        Subject: C=FR, O=NodeOPCUA, CN=NodeOPCUA
        Subject Public Key Info:
            Public Key Algorithm: rsaEncryption
                Public-Key: (2048 bit)
                Modulus:
                    00:e1:90:8c:62:da:90:22:82:2f:99:17:c1:f7:43:
                    fa:9e:fd:46:f9:4b:da:24:42:b2:e6:e2:1c:0e:52:
                    06:d1:a8:61:ed:27:b9:70:5a:6e:a7:b1:bf:3c:18:
                    7b:40:f7:83:38:e4:58:9f:46:2a:0b:a3:e7:ba:2b:
                    3d:06:aa:8b:4c:04:3a:e8:58:94:1e:4b:70:d4:05:
                    c9:ef:be:0b:46:fd:c6:16:b9:d0:a7:40:59:76:8d:
                    76:ff:38:a2:c4:91:d9:d5:32:06:31:e9:8c:ac:10:
                    34:7f:d3:68:d7:c3:f0:3f:d6:09:cf:f1:5e:6f:3a:
                    0d:2c:c3:95:cf:92:28:d0:69:b4:c2:12:88:e5:a3:
                    9a:be:72:80:1a:dc:85:4a:6a:fd:38:6e:1c:8c:98:
                    13:f5:f3:e9:fd:83:f0:3d:ba:f7:dc:98:62:99:e8:
                    66:91:45:99:0e:14:3a:7a:0d:c0:80:ff:a7:61:68:
                    da:d1:1a:29:e0:cc:6f:cb:ef:98:f9:be:cf:4f:37:
                    92:78:48:18:51:c6:35:3a:14:74:1c:d0:f9:74:3f:
                    1b:34:bb:e3:31:02:8d:b3:db:7f:f5:16:7a:21:6d:
                    4f:46:10:cc:89:99:5f:84:ce:8b:09:9c:65:12:17:
                    ef:40:b8:51:bd:af:24:e8:3c:75:3f:6d:7d:b1:cd:
                    e2:0d
                Exponent: 65537 (0x10001)
        X509v3 extensions:
            X509v3 Basic Constraints: critical
                CA:FALSE
            X509v3 Subject Key Identifier: 
                4C:AF:CE:E0:38:87:A1:23:2A:63:72:51:2D:0B:0F:E7:5A:C8:D1:BA
            X509v3 Authority Key Identifier: 
                keyid:84:FF:9C:93:B1:D0:E8:CE:A2:B6:D0:C9:6C:1E:04:B4:6E:43:47:DF
                DirName:/C=FR/ST=IDF/L=Paris/O=Local NODE-OPCUA Certificate Authority/CN=NodeOPCUA-CA
                serial:8D:7E:27:B2:25:30:DA:6F

            X509v3 Subject Alternative Name: 
                URI:urn:MUCKI:NodeOPCUA-Server, DNS:localhost, DNS:MUCKI
            Netscape Comment: 
                OpenSSL Generated Certificate
            X509v3 Key Usage: critical
                Digital Signature, Non Repudiation, Key Encipherment, Data Encipherment, Key Agreement, Certificate Sign
            X509v3 Extended Key Usage: critical
                TLS Web Server Authentication, TLS Web Client Authentication
    Signature Algorithm: sha256WithRSAEncryption
         99:77:c7:cf:4e:d2:3e:95:13:5a:1e:7b:c2:0a:b4:9e:5b:31:
         78:44:79:de:2d:b7:58:a3:91:0a:8d:98:a0:9c:9d:10:0a:04:
         f4:3c:dc:3a:8b:d2:90:90:17:c4:29:c1:21:40:08:88:9e:ac:
         36:3f:7c:01:ba:b8:7d:d1:d3:c6:c6:ab:90:1f:f8:52:6d:7e:
         3f:b7:51:7a:82:5f:09:e4:ed:a3:d7:d4:1d:b3:96:33:f1:05:
         5c:cc:dd:cd:ca:e4:3b:96:0c:7b:c7:0a:e8:60:8e:e7:43:16:
         6c:35:a1:21:c3:bf:f8:95:31:30:66:e7:7d:69:f5:fd:ed:39:
         98:33:65:50:76:18:37:30:c8:b2:a6:16:48:20:41:5b:ee:bf:
         d2:0d:fb:4e:4b:2a:5e:f7:eb:67:58:23:99:96:5f:7f:92:15:
         d0:58:8f:40:74:d0:3a:b9:e8:57:7a:86:b9:49:66:58:cf:1d:
         ba:0a:b2:23:7b:ad:2b:81:29:66:9f:76:7a:91:10:dc:1a:69:
         7f:cd:07:6d:b4:b2:49:1b:d9:26:4c:ed:bc:93:6d:44:1b:46:
         66:ac:04:2a:49:b3:e4:d8:79:a0:91:a6:c1:b0:41:79:3e:38:
         04:2a:77:82:9b:31:25:3e:5d:f6:15:ff:54:29:43:d0:55:88:
         ab:df:e8:61
-----BEGIN CERTIFICATE-----
MIIEnDCCA4SgAwIBAgICEAYwDQYJKoZIhvcNAQELBQAwczELMAkGA1UEBhMCRlIx
DDAKBgNVBAgTA0lERjEOMAwGA1UEBxMFUGFyaXMxLzAtBgNVBAoTJkxvY2FsIE5P
REUtT1BDVUEgQ2VydGlmaWNhdGUgQXV0aG9yaXR5MRUwEwYDVQQDEwxOb2RlT1BD
VUEtQ0EwIhgPMjAxNzA4MzAwOTI1MjVaGA8yMDE4MDgzMDA5MjUyNVowNTELMAkG
A1UEBhMCRlIxEjAQBgNVBAoMCU5vZGVPUENVQTESMBAGA1UEAwwJTm9kZU9QQ1VB
MIIBIjANBgkqhkiG9w0BAQEFAAOCAQ8AMIIBCgKCAQEA4ZCMYtqQIoIvmRfB90P6
nv1G+UvaJEKy5uIcDlIG0ahh7Se5cFpup7G/PBh7QPeDOORYn0YqC6Pnuis9BqqL
TAQ66FiUHktw1AXJ774LRv3GFrnQp0BZdo12/ziixJHZ1TIGMemMrBA0f9No18Pw
P9YJz/FebzoNLMOVz5Io0Gm0whKI5aOavnKAGtyFSmr9OG4cjJgT9fPp/YPwPbr3
3JhimehmkUWZDhQ6eg3AgP+nYWja0Rop4Mxvy++Y+b7PTzeSeEgYUcY1OhR0HND5
dD8bNLvjMQKNs9t/9RZ6IW1PRhDMiZlfhM6LCZxlEhfvQLhRva8k6Dx1P219sc3i
DQIDAQABo4IBcjCCAW4wDAYDVR0TAQH/BAIwADAdBgNVHQ4EFgQUTK/O4DiHoSMq
Y3JRLQsP51rI0bowgaUGA1UdIwSBnTCBmoAUhP+ck7HQ6M6ittDJbB4EtG5DR9+h
d6R1MHMxCzAJBgNVBAYTAkZSMQwwCgYDVQQIEwNJREYxDjAMBgNVBAcTBVBhcmlz
MS8wLQYDVQQKEyZMb2NhbCBOT0RFLU9QQ1VBIENlcnRpZmljYXRlIEF1dGhvcml0
eTEVMBMGA1UEAxMMTm9kZU9QQ1VBLUNBggkAjX4nsiUw2m8wNwYDVR0RBDAwLoYa
dXJuOk1VQ0tJOk5vZGVPUENVQS1TZXJ2ZXKCCWxvY2FsaG9zdIIFTVVDS0kwLAYJ
YIZIAYb4QgENBB8WHU9wZW5TU0wgR2VuZXJhdGVkIENlcnRpZmljYXRlMA4GA1Ud
DwEB/wQEAwIC/DAgBgNVHSUBAf8EFjAUBggrBgEFBQcDAQYIKwYBBQUHAwIwDQYJ
KoZIhvcNAQELBQADggEBAJl3x89O0j6VE1oee8IKtJ5bMXhEed4tt1ijkQqNmKCc
nRAKBPQ83DqL0pCQF8QpwSFACIierDY/fAG6uH3R08bGq5Af+FJtfj+3UXqCXwnk
7aPX1B2zljPxBVzM3c3K5DuWDHvHCuhgjudDFmw1oSHDv/iVMTBm531p9f3tOZgz
ZVB2GDcwyLKmFkggQVvuv9IN+05LKl7362dYI5mWX3+SFdBYj0B00Dq56Fd6hrlJ
ZljPHboKsiN7rSuBKWafdnqRENwaaX/NB220skkb2SZM7byTbUQbRmasBCpJs+TY
eaCRpsGwQXk+OAQqd4KbMSU+XfYV/1QpQ9BViKvf6GE=
-----END CERTIFICATE-----
-----BEGIN CERTIFICATE-----
MIIE3TCCA8WgAwIBAgIJAI1+J7IlMNpvMA0GCSqGSIb3DQEBCwUAMHMxCzAJBgNV
BAYTAkZSMQwwCgYDVQQIEwNJREYxDjAMBgNVBAcTBVBhcmlzMS8wLQYDVQQKEyZM
b2NhbCBOT0RFLU9QQ1VBIENlcnRpZmljYXRlIEF1dGhvcml0eTEVMBMGA1UEAxMM
Tm9kZU9QQ1VBLUNBMB4XDTE3MDgzMTA5MjUyNloXDTI3MDgyOTA5MjUyNlowczEL
MAkGA1UEBhMCRlIxDDAKBgNVBAgTA0lERjEOMAwGA1UEBxMFUGFyaXMxLzAtBgNV
BAoTJkxvY2FsIE5PREUtT1BDVUEgQ2VydGlmaWNhdGUgQXV0aG9yaXR5MRUwEwYD
VQQDEwxOb2RlT1BDVUEtQ0EwggEiMA0GCSqGSIb3DQEBAQUAA4IBDwAwggEKAoIB
AQDG3v8admiXUVX1VCe/h9RQi7VbUfxK2lWcIIp4BgGYLQiyIh0sK9sba2b0tlO9
fIeSQuwWQlNKSE0ElEXUYmSWnpqUhZWjG6QZvE+VEJ5pIlYZNk4ABql15HaqoA6A
ZpUZnj9VQcK7C8S/A9WF/rOu3KxCNbwX0O3yR/zSzCqBGTcvE9EXvXC9X5rB7BKo
y7xqduE/bAhfgDnR0wHFX8M7PgId6LpF8+NWl8C7ApVcMxDYmiDO+P98EexuLyZp
KxGFuBT2mmb/YOOmZJ6CqorcDF43HHjtB2pybt9aCQkr1L9RFhdwKZVpSBTurlFh
YYxRzck1795Zb3CaQ1XJZEVNAgMBAAGjggFyMIIBbjAdBgNVHQ4EFgQUhP+ck7HQ
6M6ittDJbB4EtG5DR98wgaUGA1UdIwSBnTCBmoAUhP+ck7HQ6M6ittDJbB4EtG5D
R9+hd6R1MHMxCzAJBgNVBAYTAkZSMQwwCgYDVQQIEwNJREYxDjAMBgNVBAcTBVBh
cmlzMS8wLQYDVQQKEyZMb2NhbCBOT0RFLU9QQ1VBIENlcnRpZmljYXRlIEF1dGhv
cml0eTEVMBMGA1UEAxMMTm9kZU9QQ1VBLUNBggkAjX4nsiUw2m8wDAYDVR0TBAUw
AwEB/zAOBgNVHQ8BAf8EBAMCAQYwVwYJYIZIAYb4QgENBEoWSENBIENlcnRpZmlj
YXRlIGdlbmVyYXRlZCBieSBOb2RlLU9QQ1VBIENlcnRpZmljYXRlIHV0aWxpdHkg
dXNpbmcgb3BlbnNzbDAuBgNVHR8EJzAlMCOgIaAfhh1odHRwOi8vbG9jYWxob3N0
Ojg5MDAvY3JsLnBlbTANBgkqhkiG9w0BAQsFAAOCAQEASuoPMYtdxzTU5UuaU7Sr
nXmqqFLaPfFChdBdCiVqA+ZayhDHmrn1+D4zTHQ6fs7eSnoBtABSOlE2NoGFE+or
aC/oienkp48m/+2gx0Hi5blY0by0hSC/YAhMAJsOArfPB/Ma/O6+phMtudeaE42Q
qyUBqnRzH/J5LCzqfJlWm0mu26MVuyZxNWx4TMALPZFLT5AxHKd2VvUVssVWwBPb
rr29Pycy7/VuELsBVk37u449oZVdZk8NTfemKpb5VymSIaxhJGT4GN4oXkgp3kP4
+H/2p5sEVWeYB0e0EkagIQP2TpYSFqemdai4raNH7mTNfMaLwzfdhEtChV42de71
bQ==
-----END CERTIFICATE-----
