Certificate Request:
    Data:
        Version: 0 (0x0)
        Subject: C=FR, ST=IDF, L=Paris, O=Local NODE-OPCUA Certificate Authority, CN=NodeOPCUA-CA
        Subject Public Key Info:
            Public Key Algorithm: rsaEncryption
                Public-Key: (2048 bit)
                Modulus:
                    00:c6:de:ff:1a:76:68:97:51:55:f5:54:27:bf:87:
                    d4:50:8b:b5:5b:51:fc:4a:da:55:9c:20:8a:78:06:
                    01:98:2d:08:b2:22:1d:2c:2b:db:1b:6b:66:f4:b6:
                    53:bd:7c:87:92:42:ec:16:42:53:4a:48:4d:04:94:
                    45:d4:62:64:96:9e:9a:94:85:95:a3:1b:a4:19:bc:
                    4f:95:10:9e:69:22:56:19:36:4e:00:06:a9:75:e4:
                    76:aa:a0:0e:80:66:95:19:9e:3f:55:41:c2:bb:0b:
                    c4:bf:03:d5:85:fe:b3:ae:dc:ac:42:35:bc:17:d0:
                    ed:f2:47:fc:d2:cc:2a:81:19:37:2f:13:d1:17:bd:
                    70:bd:5f:9a:c1:ec:12:a8:cb:bc:6a:76:e1:3f:6c:
                    08:5f:80:39:d1:d3:01:c5:5f:c3:3b:3e:02:1d:e8:
                    ba:45:f3:e3:56:97:c0:bb:02:95:5c:33:10:d8:9a:
                    20:ce:f8:ff:7c:11:ec:6e:2f:26:69:2b:11:85:b8:
                    14:f6:9a:66:ff:60:e3:a6:64:9e:82:aa:8a:dc:0c:
                    5e:37:1c:78:ed:07:6a:72:6e:df:5a:09:09:2b:d4:
                    bf:51:16:17:70:29:95:69:48:14:ee:ae:51:61:61:
                    8c:51:cd:c9:35:ef:de:59:6f:70:9a:43:55:c9:64:
                    45:4d
                Exponent: 65537 (0x10001)
        Attributes:
        Requested Extensions:
            X509v3 Basic Constraints: critical
                CA:FALSE
            X509v3 Key Usage: 
                Digital Signature, Non Repudiation, Key Encipherment, Data Encipherment, Key Agreement
            X509v3 Subject Alternative Name: 
                URI:undefined
            Netscape Comment: 
                CA Generated by Node-OPCUA Certificate utility using openssl
    Signature Algorithm: sha256WithRSAEncryption
         22:2e:cb:ca:71:e4:0a:cc:dc:d6:b3:ca:c7:e6:db:60:25:22:
         d5:c1:c2:99:d1:32:85:6c:62:cc:f8:11:d2:b1:7f:ee:74:33:
         55:d7:4a:86:d3:39:d4:26:10:c8:dd:9f:ef:b7:cd:54:46:c5:
         40:ae:72:06:f4:b4:24:31:2c:e6:76:fa:f9:06:de:37:b0:e2:
         fc:15:38:45:4f:31:e1:27:91:2d:0e:a0:be:c8:55:17:76:d5:
         02:ba:19:7d:b9:43:5d:be:f1:8d:30:ad:15:7f:10:63:7e:b3:
         04:17:d9:dd:c4:90:46:dc:6f:63:b7:05:85:36:f3:70:f7:1a:
         18:d0:b1:44:23:00:46:37:84:24:dd:ca:cd:72:07:d5:0c:d0:
         95:2f:d9:fa:66:14:73:c2:ca:98:80:55:57:64:70:3c:96:25:
         76:1b:53:18:9d:17:90:60:52:f1:a7:9d:4b:22:f0:2c:e6:3b:
         d3:4f:10:2e:f9:3c:3b:4f:10:05:59:c1:9a:37:cb:4c:af:9c:
         4b:fb:2c:28:2f:c8:80:dc:6c:b7:c7:01:f5:1a:1c:8a:e5:07:
         dc:1a:fe:55:f0:ff:81:2a:58:11:2c:07:e5:01:e7:e6:80:a3:
         32:76:11:49:09:4f:e9:eb:88:dd:2c:40:c3:41:ec:f9:c9:61:
         63:d0:59:9b
-----BEGIN CERTIFICATE REQUEST-----
MIIDSjCCAjICAQAwczELMAkGA1UEBhMCRlIxDDAKBgNVBAgTA0lERjEOMAwGA1UE
BxMFUGFyaXMxLzAtBgNVBAoTJkxvY2FsIE5PREUtT1BDVUEgQ2VydGlmaWNhdGUg
QXV0aG9yaXR5MRUwEwYDVQQDEwxOb2RlT1BDVUEtQ0EwggEiMA0GCSqGSIb3DQEB
AQUAA4IBDwAwggEKAoIBAQDG3v8admiXUVX1VCe/h9RQi7VbUfxK2lWcIIp4BgGY
LQiyIh0sK9sba2b0tlO9fIeSQuwWQlNKSE0ElEXUYmSWnpqUhZWjG6QZvE+VEJ5p
IlYZNk4ABql15HaqoA6AZpUZnj9VQcK7C8S/A9WF/rOu3KxCNbwX0O3yR/zSzCqB
GTcvE9EXvXC9X5rB7BKoy7xqduE/bAhfgDnR0wHFX8M7PgId6LpF8+NWl8C7ApVc
MxDYmiDO+P98EexuLyZpKxGFuBT2mmb/YOOmZJ6CqorcDF43HHjtB2pybt9aCQkr
1L9RFhdwKZVpSBTurlFhYYxRzck1795Zb3CaQ1XJZEVNAgMBAAGggZEwgY4GCSqG
SIb3DQEJDjGBgDB+MAwGA1UdEwEB/wQCMAAwCwYDVR0PBAQDAgP4MBQGA1UdEQQN
MAuGCXVuZGVmaW5lZDBLBglghkgBhvhCAQ0EPhY8Q0EgR2VuZXJhdGVkIGJ5IE5v
ZGUtT1BDVUEgQ2VydGlmaWNhdGUgdXRpbGl0eSB1c2luZyBvcGVuc3NsMA0GCSqG
SIb3DQEBCwUAA4IBAQAiLsvKceQKzNzWs8rH5ttgJSLVwcKZ0TKFbGLM+BHSsX/u
dDNV10qG0znUJhDI3Z/vt81URsVArnIG9LQkMSzmdvr5Bt43sOL8FThFTzHhJ5Et
DqC+yFUXdtUCuhl9uUNdvvGNMK0VfxBjfrMEF9ndxJBG3G9jtwWFNvNw9xoY0LFE
IwBGN4Qk3crNcgfVDNCVL9n6ZhRzwsqYgFVXZHA8liV2G1MYnReQYFLxp51LIvAs
5jvTTxAu+Tw7TxAFWcGaN8tMr5xL+ywoL8iA3Gy3xwH1GhyK5QfcGv5V8P+BKlgR
LAflAefmgKMydhFJCU/p64jdLEDDQez5yWFj0Fmb
-----END CERTIFICATE REQUEST-----
