Certificate Request:
    Data:
        Version: 0 (0x0)
        Subject: C=FR, ST=IDF, L=Paris, O=Local NODE-OPCUA Certificate Authority, CN=NodeOPCUA-CA
        Subject Public Key Info:
            Public Key Algorithm: rsaEncryption
                Public-Key: (2048 bit)
                Modulus:
                    00:a8:96:ea:f6:82:b2:48:c2:0b:c8:6b:ea:01:96:
                    e7:70:c8:49:0f:a7:dc:be:54:1a:dc:b0:e6:13:0d:
                    37:1c:cc:4a:bc:68:9e:14:fe:ce:88:cb:3a:ff:55:
                    25:d9:55:ae:25:02:11:28:cd:ff:a9:43:da:c6:47:
                    ac:1d:17:ba:a2:79:e8:93:aa:59:9a:d2:06:4b:6d:
                    3a:a0:8e:bd:ac:60:e3:4f:94:53:5b:e1:55:b6:c4:
                    e9:28:a4:2b:e9:ec:40:2c:cc:96:aa:3d:88:7f:d0:
                    fb:07:8d:8d:e6:ef:bd:5d:5d:fd:72:e9:a3:8c:b8:
                    ad:15:c5:d6:2c:0e:0b:43:b0:14:20:c2:81:69:20:
                    82:44:ef:ac:01:fb:a6:29:cf:63:50:5b:40:43:0e:
                    76:fc:db:f1:04:75:39:6e:9d:1e:10:29:66:37:8c:
                    aa:2a:f2:bd:79:0c:d1:0f:57:eb:d3:b3:dc:9f:5f:
                    e5:1e:08:77:80:be:69:54:21:38:18:ec:5f:70:27:
                    2c:8d:d0:c4:ad:7e:d2:36:e3:34:b1:d8:57:c2:5f:
                    08:79:14:e1:bd:32:20:cd:d5:3d:96:b7:9a:95:d6:
                    c7:60:7a:a7:ed:33:bf:3b:3f:49:4c:55:f7:66:ae:
                    7e:96:c8:cf:42:c7:58:2b:ae:6e:81:3d:b9:6a:a9:
                    4d:a1
                Exponent: 65537 (0x10001)
        Attributes:
        Requested Extensions:
            X509v3 Basic Constraints: critical
                CA:FALSE
            X509v3 Key Usage: 
                Digital Signature, Non Repudiation, Key Encipherment, Data Encipherment, Key Agreement
            X509v3 Subject Alternative Name: 
                URI:undefined
            Netscape Comment: 
                CA Generated by Node-OPCUA Certificate utility using openssl
    Signature Algorithm: sha256WithRSAEncryption
         92:3e:e7:7a:b4:9c:fa:91:de:9e:a8:15:b0:2e:44:c4:70:87:
         33:2a:5d:27:ef:6a:57:17:35:5b:17:b8:6e:ad:0e:e3:71:5f:
         62:31:d0:0e:6c:49:5a:cc:ff:4e:e4:24:57:2c:68:64:f5:a9:
         29:4f:59:07:97:96:4b:9a:65:81:ab:34:02:f0:b1:e5:82:e5:
         b5:bf:52:ad:87:d9:ae:9e:64:ed:7f:d6:7b:15:8a:ef:8b:2b:
         fe:46:92:ba:87:8e:ad:f1:a3:54:8f:73:0e:f8:bc:87:b1:a8:
         44:24:a1:44:8d:6c:3a:92:b2:c7:5f:e2:a8:d0:93:a3:e4:46:
         65:42:5f:f5:82:33:8f:e1:f3:42:40:4c:c4:fc:07:7c:46:80:
         1c:f7:4c:3d:ed:11:dd:ce:fe:8c:d7:52:e3:4a:98:f2:f7:31:
         1a:28:a3:05:a1:07:8d:1c:be:27:15:3a:a3:e7:23:5c:80:1e:
         eb:23:64:19:f5:6f:28:b6:6a:c9:5e:ef:44:71:3f:11:6f:4a:
         17:d2:ef:14:0c:79:62:6b:c5:9c:bb:93:83:aa:1c:b9:95:41:
         1e:2e:70:2f:a0:fa:34:05:d3:b0:14:d7:9a:e7:90:89:93:5c:
         e2:6e:ee:a3:9b:b7:67:8b:c6:54:f3:28:bb:0e:78:2a:fc:57:
         d2:f3:42:ad
-----BEGIN CERTIFICATE REQUEST-----
MIIDSjCCAjICAQAwczELMAkGA1UEBhMCRlIxDDAKBgNVBAgTA0lERjEOMAwGA1UE
BxMFUGFyaXMxLzAtBgNVBAoTJkxvY2FsIE5PREUtT1BDVUEgQ2VydGlmaWNhdGUg
QXV0aG9yaXR5MRUwEwYDVQQDEwxOb2RlT1BDVUEtQ0EwggEiMA0GCSqGSIb3DQEB
AQUAA4IBDwAwggEKAoIBAQColur2grJIwgvIa+oBludwyEkPp9y+VBrcsOYTDTcc
zEq8aJ4U/s6Iyzr/VSXZVa4lAhEozf+pQ9rGR6wdF7qieeiTqlma0gZLbTqgjr2s
YONPlFNb4VW2xOkopCvp7EAszJaqPYh/0PsHjY3m771dXf1y6aOMuK0VxdYsDgtD
sBQgwoFpIIJE76wB+6Ypz2NQW0BDDnb82/EEdTlunR4QKWY3jKoq8r15DNEPV+vT
s9yfX+UeCHeAvmlUITgY7F9wJyyN0MStftI24zSx2FfCXwh5FOG9MiDN1T2Wt5qV
1sdgeqftM787P0lMVfdmrn6WyM9Cx1grrm6BPblqqU2hAgMBAAGggZEwgY4GCSqG
SIb3DQEJDjGBgDB+MAwGA1UdEwEB/wQCMAAwCwYDVR0PBAQDAgP4MBQGA1UdEQQN
MAuGCXVuZGVmaW5lZDBLBglghkgBhvhCAQ0EPhY8Q0EgR2VuZXJhdGVkIGJ5IE5v
ZGUtT1BDVUEgQ2VydGlmaWNhdGUgdXRpbGl0eSB1c2luZyBvcGVuc3NsMA0GCSqG
SIb3DQEBCwUAA4IBAQCSPud6tJz6kd6eqBWwLkTEcIczKl0n72pXFzVbF7hurQ7j
cV9iMdAObElazP9O5CRXLGhk9akpT1kHl5ZLmmWBqzQC8LHlguW1v1Kth9munmTt
f9Z7FYrviyv+RpK6h46t8aNUj3MO+LyHsahEJKFEjWw6krLHX+Ko0JOj5EZlQl/1
gjOP4fNCQEzE/Ad8RoAc90w97RHdzv6M11LjSpjy9zEaKKMFoQeNHL4nFTqj5yNc
gB7rI2QZ9W8otmrJXu9EcT8Rb0oX0u8UDHlia8Wcu5ODqhy5lUEeLnAvoPo0BdOw
FNea55CJk1zibu6jm7dni8ZU8yi7Dngq/FfS80Kt
-----END CERTIFICATE REQUEST-----
