Certificate Request:
    Data:
        Version: 0 (0x0)
        Subject: C=FR, ST=IDF, L=Paris, O=Local NODE-OPCUA Certificate Authority, CN=NodeOPCUA-CA
        Subject Public Key Info:
            Public Key Algorithm: rsaEncryption
                Public-Key: (2048 bit)
                Modulus:
                    00:ab:b8:75:2e:3a:37:2b:24:ac:3e:ca:41:fc:c6:
                    1e:cf:cb:47:3b:58:cd:d6:cd:d7:de:d2:fa:57:26:
                    05:41:04:b8:87:56:dd:47:97:07:7f:39:2e:78:14:
                    4f:13:72:35:06:4d:31:86:17:43:bb:ad:d2:e4:cd:
                    06:96:e9:29:a6:6f:03:14:6a:8b:ec:68:c4:63:89:
                    6b:59:82:83:dd:37:9e:94:c9:d5:18:43:d1:58:ca:
                    73:55:71:53:42:b0:8d:2d:f7:22:94:87:ef:8d:a3:
                    56:c9:a1:ad:01:52:d2:fa:fd:9f:e6:88:60:89:e2:
                    c4:99:35:8d:bd:34:0d:16:41:a0:b5:52:61:89:e9:
                    26:9c:eb:0f:77:ff:cc:32:38:de:d5:b4:9b:a8:a0:
                    eb:ea:49:1a:7b:85:bb:9c:ab:7e:0a:38:30:d1:f9:
                    9b:ce:33:c1:7c:87:03:bb:51:fa:56:ba:da:f1:1a:
                    48:5e:89:08:97:de:46:c1:ca:ee:dc:fc:81:67:cd:
                    ad:c8:89:c6:61:73:18:80:45:5b:5b:ca:95:a9:1a:
                    a3:59:29:b3:39:bb:71:2e:80:2e:bc:ec:1b:f9:df:
                    72:51:27:7c:e7:df:34:5b:5d:f6:f7:2f:f3:45:73:
                    76:e2:31:ad:bb:c5:4c:7c:b7:d3:62:72:0c:02:79:
                    f9:f1
                Exponent: 65537 (0x10001)
        Attributes:
        Requested Extensions:
            X509v3 Basic Constraints: critical
                CA:FALSE
            X509v3 Key Usage: 
                Digital Signature, Non Repudiation, Key Encipherment, Data Encipherment, Key Agreement
            X509v3 Subject Alternative Name: 
                URI:undefined
            Netscape Comment: 
                CA Generated by Node-OPCUA Certificate utility using openssl
    Signature Algorithm: sha256WithRSAEncryption
         4b:69:af:87:39:65:5e:6d:2b:ad:af:6e:51:d4:85:32:aa:43:
         c8:88:de:bc:6c:25:b8:6d:7d:2a:77:6b:0c:2a:b5:14:81:d7:
         ea:3f:b0:14:6c:a4:7c:62:42:e0:ec:35:b9:a9:04:f3:2b:d8:
         5c:12:53:01:26:7c:42:41:9e:c7:d7:dc:a8:7f:83:b1:73:af:
         9f:b2:e5:16:80:54:24:db:cd:07:86:b8:ae:8c:b3:e9:c3:10:
         a2:ef:7c:8b:90:d5:02:df:2d:ff:e5:8b:e3:e9:97:fc:27:a6:
         77:bc:05:ef:4d:dd:19:7e:14:75:b4:21:17:69:eb:6b:f2:22:
         be:f9:32:c3:3a:2b:9b:d1:04:30:e2:22:9a:5c:b1:5c:c9:5b:
         5a:c8:42:e3:71:db:06:17:bd:90:b4:1e:62:2b:45:5e:12:d8:
         36:97:14:74:91:de:b8:2c:8f:b5:a8:86:ed:1b:ff:31:23:f8:
         ef:78:5d:e7:de:c3:b7:fd:21:a3:67:26:dd:ba:2a:bc:9e:f0:
         26:e8:4e:9f:5b:bf:ad:cf:09:a6:f7:bd:04:50:fa:70:33:81:
         87:24:a1:52:87:1d:5a:df:5e:41:a6:d0:89:1a:00:65:9d:f5:
         b2:42:06:02:88:bc:ec:42:f4:a8:57:ed:2d:c4:98:f4:b9:d0:
         f6:4f:b4:e9
-----BEGIN CERTIFICATE REQUEST-----
MIIDSjCCAjICAQAwczELMAkGA1UEBhMCRlIxDDAKBgNVBAgTA0lERjEOMAwGA1UE
BxMFUGFyaXMxLzAtBgNVBAoTJkxvY2FsIE5PREUtT1BDVUEgQ2VydGlmaWNhdGUg
QXV0aG9yaXR5MRUwEwYDVQQDEwxOb2RlT1BDVUEtQ0EwggEiMA0GCSqGSIb3DQEB
AQUAA4IBDwAwggEKAoIBAQCruHUuOjcrJKw+ykH8xh7Py0c7WM3Wzdfe0vpXJgVB
BLiHVt1Hlwd/OS54FE8TcjUGTTGGF0O7rdLkzQaW6SmmbwMUaovsaMRjiWtZgoPd
N56UydUYQ9FYynNVcVNCsI0t9yKUh++No1bJoa0BUtL6/Z/miGCJ4sSZNY29NA0W
QaC1UmGJ6Sac6w93/8wyON7VtJuooOvqSRp7hbucq34KODDR+ZvOM8F8hwO7UfpW
utrxGkheiQiX3kbByu7c/IFnza3IicZhcxiARVtbypWpGqNZKbM5u3EugC687Bv5
33JRJ3zn3zRbXfb3L/NFc3biMa27xUx8t9NicgwCefnxAgMBAAGggZEwgY4GCSqG
SIb3DQEJDjGBgDB+MAwGA1UdEwEB/wQCMAAwCwYDVR0PBAQDAgP4MBQGA1UdEQQN
MAuGCXVuZGVmaW5lZDBLBglghkgBhvhCAQ0EPhY8Q0EgR2VuZXJhdGVkIGJ5IE5v
ZGUtT1BDVUEgQ2VydGlmaWNhdGUgdXRpbGl0eSB1c2luZyBvcGVuc3NsMA0GCSqG
SIb3DQEBCwUAA4IBAQBLaa+HOWVebSutr25R1IUyqkPIiN68bCW4bX0qd2sMKrUU
gdfqP7AUbKR8YkLg7DW5qQTzK9hcElMBJnxCQZ7H19yof4Oxc6+fsuUWgFQk280H
hriujLPpwxCi73yLkNUC3y3/5Yvj6Zf8J6Z3vAXvTd0ZfhR1tCEXaetr8iK++TLD
Oiub0QQw4iKaXLFcyVtayELjcdsGF72QtB5iK0VeEtg2lxR0kd64LI+1qIbtG/8x
I/jveF3n3sO3/SGjZybduiq8nvAm6E6fW7+tzwmm970EUPpwM4GHJKFShx1a315B
ptCJGgBlnfWyQgYCiLzsQvSoV+0txJj0udD2T7Tp
-----END CERTIFICATE REQUEST-----
