Certificate Request:
    Data:
        Version: 0 (0x0)
        Subject: C=FR, ST=IDF, L=Paris, O=Local NODE-OPCUA Certificate Authority, CN=NodeOPCUA-CA
        Subject Public Key Info:
            Public Key Algorithm: rsaEncryption
                Public-Key: (2048 bit)
                Modulus:
                    00:af:61:4c:e2:8c:33:73:ef:bc:13:90:2a:30:4f:
                    7f:84:e1:2b:73:59:eb:71:04:81:99:6e:c6:95:da:
                    c3:27:f3:3f:aa:29:6a:8d:4b:a8:e4:14:5d:bc:52:
                    cd:09:75:74:18:0a:18:e4:bf:e5:8a:ae:33:57:2c:
                    d3:89:f2:f0:72:63:07:4a:21:2b:49:68:d5:d2:3c:
                    ce:e8:7a:94:89:84:ef:16:18:71:12:8b:aa:af:11:
                    08:40:0b:b7:f3:45:ff:c5:b2:32:7a:79:bb:1c:79:
                    7d:6f:b6:70:8f:ae:5b:81:e4:77:60:1b:a5:d2:17:
                    f9:ac:27:d9:01:26:2f:77:a2:37:de:89:60:fd:4a:
                    db:08:86:19:e5:d5:0c:17:1f:02:cb:ea:40:71:13:
                    9f:00:88:51:e7:b0:56:f9:b0:32:b3:13:70:79:e9:
                    44:9a:33:03:c0:4e:6e:27:d3:33:32:18:76:78:e3:
                    75:db:b5:9f:37:23:a3:54:d7:ad:6a:5a:c1:44:22:
                    be:23:68:cf:40:e3:56:70:64:09:9b:18:a5:a4:7c:
                    4f:ef:fb:3b:a3:8a:a4:8d:01:f8:54:85:42:03:c1:
                    24:6e:04:d5:f7:60:4f:7a:33:e0:b7:1e:85:2f:4e:
                    35:95:18:87:3c:f8:1e:67:4e:d4:2a:42:0c:7c:b6:
                    09:5d
                Exponent: 65537 (0x10001)
        Attributes:
        Requested Extensions:
            X509v3 Basic Constraints: critical
                CA:FALSE
            X509v3 Key Usage: 
                Digital Signature, Non Repudiation, Key Encipherment, Data Encipherment, Key Agreement
            X509v3 Subject Alternative Name: 
                URI:undefined
            Netscape Comment: 
                CA Generated by Node-OPCUA Certificate utility using openssl
    Signature Algorithm: sha256WithRSAEncryption
         04:be:eb:6f:a2:d1:e6:53:10:45:b5:a1:15:b1:56:eb:a5:da:
         8a:be:3d:2d:2f:71:2b:5c:77:ff:86:0a:a6:0f:61:62:63:b0:
         06:47:92:bf:0e:ff:c9:81:c9:be:47:d6:3d:6a:91:4b:a9:b5:
         69:2d:6c:01:ba:4e:9f:a7:d6:2d:b6:13:04:e8:3f:4f:7d:d0:
         26:4c:e5:54:ac:5e:6f:46:dc:c6:a6:fc:e1:d8:4a:6a:ee:82:
         be:5b:97:d0:3a:50:e7:33:56:e8:c8:6a:58:c7:a8:c6:1c:18:
         cb:2f:4f:fe:82:74:0e:cd:b9:ff:d1:6c:9f:91:a9:35:f9:94:
         9d:13:5d:db:b4:17:f6:75:a0:64:44:b9:b3:91:b5:32:3b:b4:
         36:15:1e:bf:10:4d:0a:c2:34:26:54:90:e5:e5:6d:60:c2:48:
         8e:98:95:de:ae:d7:c9:57:1e:c0:01:4e:d0:20:be:02:96:c9:
         e2:e0:e6:5f:a1:d9:8c:81:37:7c:95:0b:fa:db:55:b5:6c:e5:
         f0:1c:f9:32:df:34:76:0e:ab:5a:59:d7:1f:20:48:9d:74:a7:
         a8:3f:d1:be:eb:a1:81:e9:11:7a:f3:e9:62:d7:2f:1e:f1:70:
         99:6f:d1:7e:2c:ea:01:2d:96:b7:7b:f0:1e:4f:fe:a4:71:e5:
         91:2b:2e:69
-----BEGIN CERTIFICATE REQUEST-----
MIIDSjCCAjICAQAwczELMAkGA1UEBhMCRlIxDDAKBgNVBAgTA0lERjEOMAwGA1UE
BxMFUGFyaXMxLzAtBgNVBAoTJkxvY2FsIE5PREUtT1BDVUEgQ2VydGlmaWNhdGUg
QXV0aG9yaXR5MRUwEwYDVQQDEwxOb2RlT1BDVUEtQ0EwggEiMA0GCSqGSIb3DQEB
AQUAA4IBDwAwggEKAoIBAQCvYUzijDNz77wTkCowT3+E4StzWetxBIGZbsaV2sMn
8z+qKWqNS6jkFF28Us0JdXQYChjkv+WKrjNXLNOJ8vByYwdKIStJaNXSPM7oepSJ
hO8WGHESi6qvEQhAC7fzRf/FsjJ6ebsceX1vtnCPrluB5HdgG6XSF/msJ9kBJi93
ojfeiWD9StsIhhnl1QwXHwLL6kBxE58AiFHnsFb5sDKzE3B56USaMwPATm4n0zMy
GHZ443XbtZ83I6NU161qWsFEIr4jaM9A41ZwZAmbGKWkfE/v+zujiqSNAfhUhUID
wSRuBNX3YE96M+C3HoUvTjWVGIc8+B5nTtQqQgx8tgldAgMBAAGggZEwgY4GCSqG
SIb3DQEJDjGBgDB+MAwGA1UdEwEB/wQCMAAwCwYDVR0PBAQDAgP4MBQGA1UdEQQN
MAuGCXVuZGVmaW5lZDBLBglghkgBhvhCAQ0EPhY8Q0EgR2VuZXJhdGVkIGJ5IE5v
ZGUtT1BDVUEgQ2VydGlmaWNhdGUgdXRpbGl0eSB1c2luZyBvcGVuc3NsMA0GCSqG
SIb3DQEBCwUAA4IBAQAEvutvotHmUxBFtaEVsVbrpdqKvj0tL3ErXHf/hgqmD2Fi
Y7AGR5K/Dv/Jgcm+R9Y9apFLqbVpLWwBuk6fp9YtthME6D9PfdAmTOVUrF5vRtzG
pvzh2Epq7oK+W5fQOlDnM1boyGpYx6jGHBjLL0/+gnQOzbn/0Wyfkak1+ZSdE13b
tBf2daBkRLmzkbUyO7Q2FR6/EE0KwjQmVJDl5W1gwkiOmJXertfJVx7AAU7QIL4C
lsni4OZfodmMgTd8lQv621W1bOXwHPky3zR2DqtaWdcfIEiddKeoP9G+66GB6RF6
8+li1y8e8XCZb9F+LOoBLZa3e/AeT/6kceWRKy5p
-----END CERTIFICATE REQUEST-----
