Certificate:
    Data:
        Version: 3 (0x2)
        Serial Number: 4096 (0x1000)
    Signature Algorithm: sha256WithRSAEncryption
        Issuer: C=FR, ST=IDF, L=Paris, O=Local NODE-OPCUA Certificate Authority, CN=NodeOPCUA-CA
        Validity
            Not Before: Sep  3 10:44:36 2018 GMT
            Not After : Sep  3 10:44:36 2019 GMT
        Subject: C=FR, O=NodeOPCUA, CN=NodeOPCUA
        Subject Public Key Info:
            Public Key Algorithm: rsaEncryption
                Public-Key: (1024 bit)
                Modulus:
                    00:df:9b:6f:71:03:98:01:dc:ce:a7:9e:c2:b6:26:
                    e4:20:92:3d:2f:cf:31:ec:3e:a1:c1:ee:76:6b:3a:
                    69:94:a6:0c:fb:91:39:3b:95:8e:4b:4a:eb:63:7c:
                    bb:f2:35:32:2c:73:90:d3:fc:e4:f7:d9:28:d7:89:
                    72:70:0f:1b:fc:68:b7:75:08:cb:1a:87:aa:59:3c:
                    8f:6a:19:61:9f:91:55:6c:1c:1a:77:a9:48:08:b2:
                    15:e8:e6:aa:51:10:02:a9:ab:24:a3:92:5d:2a:68:
                    f7:41:7d:12:84:6d:07:13:55:24:0c:d9:b3:55:0e:
                    fa:d0:d9:5f:12:57:d3:0d:1f
                Exponent: 65537 (0x10001)
        X509v3 extensions:
            X509v3 Basic Constraints: critical
                CA:FALSE
            X509v3 Subject Key Identifier: 
                AD:B6:78:63:BE:C0:F6:6A:DA:7D:74:07:50:00:66:2C:32:E7:63:BA
            X509v3 Authority Key Identifier: 
                keyid:D3:81:4E:D9:C6:61:17:6C:47:A8:0D:83:36:F8:BA:7E:2C:F8:B6:AB
                DirName:/C=FR/ST=IDF/L=Paris/O=Local NODE-OPCUA Certificate Authority/CN=NodeOPCUA-CA
                serial:86:71:D7:EE:71:12:AB:EE

            X509v3 Subject Alternative Name: 
                URI:urn:NB5DSCR503191NB:NodeOPCUA-Client, DNS:localhost, DNS:NB5DSCR503191NB
            Netscape Comment: 
                OpenSSL Generated Certificate
            X509v3 Key Usage: critical
                Digital Signature, Non Repudiation, Key Encipherment, Data Encipherment, Key Agreement, Certificate Sign
            X509v3 Extended Key Usage: critical
                TLS Web Server Authentication, TLS Web Client Authentication
    Signature Algorithm: sha256WithRSAEncryption
         20:56:83:60:99:eb:bc:79:cb:3f:c7:ed:d8:74:fe:51:4e:97:
         94:c0:ab:78:4e:a7:74:e0:c5:55:be:e3:3e:d7:8f:3c:b4:52:
         89:90:4e:98:ed:29:f9:f4:8c:48:6d:8b:9b:75:e9:94:db:ac:
         01:ee:ff:06:79:08:bc:29:a0:c6:d6:d5:bb:4d:4e:35:0d:15:
         d2:8f:b2:3e:2e:e4:44:51:fd:1f:df:b3:01:be:14:86:6d:ca:
         3c:f6:83:9d:03:62:0f:57:78:6e:91:b7:77:6a:b6:fb:8e:09:
         09:03:f0:bc:36:be:4d:bf:11:da:8e:a4:30:a3:c9:fd:a5:dc:
         c6:17:48:ce:1b:4b:1c:59:be:c7:4f:89:1e:53:93:cd:21:d4:
         3c:be:2b:5a:a4:99:48:07:2f:cb:34:83:18:82:53:d9:36:c5:
         52:c9:49:82:5c:c3:b7:88:f5:ec:c5:7e:62:90:0f:a6:b4:09:
         e5:d2:0b:15:e7:3f:bd:6f:af:a4:97:bd:52:23:2e:c8:49:5c:
         3c:8d:96:38:bf:94:41:1b:d2:5a:72:7d:d0:d6:a7:4a:31:c0:
         b8:be:2c:53:a3:13:30:0b:ae:7c:6f:b0:5b:15:13:1a:b5:f7:
         d1:3f:77:e0:a1:24:8d:3a:dd:5f:8d:1a:9f:c1:a9:4e:cf:cf:
         2f:86:ac:cd
-----BEGIN CERTIFICATE-----
MIIELDCCAxSgAwIBAgICEAAwDQYJKoZIhvcNAQELBQAwczELMAkGA1UEBhMCRlIx
DDAKBgNVBAgTA0lERjEOMAwGA1UEBxMFUGFyaXMxLzAtBgNVBAoTJkxvY2FsIE5P
REUtT1BDVUEgQ2VydGlmaWNhdGUgQXV0aG9yaXR5MRUwEwYDVQQDEwxOb2RlT1BD
VUEtQ0EwIhgPMjAxODA5MDMxMDQ0MzZaGA8yMDE5MDkwMzEwNDQzNlowNTELMAkG
A1UEBhMCRlIxEjAQBgNVBAoMCU5vZGVPUENVQTESMBAGA1UEAwwJTm9kZU9QQ1VB
MIGfMA0GCSqGSIb3DQEBAQUAA4GNADCBiQKBgQDfm29xA5gB3M6nnsK2JuQgkj0v
zzHsPqHB7nZrOmmUpgz7kTk7lY5LSutjfLvyNTIsc5DT/OT32SjXiXJwDxv8aLd1
CMsah6pZPI9qGWGfkVVsHBp3qUgIshXo5qpREAKpqySjkl0qaPdBfRKEbQcTVSQM
2bNVDvrQ2V8SV9MNHwIDAQABo4IBhjCCAYIwDAYDVR0TAQH/BAIwADAdBgNVHQ4E
FgQUrbZ4Y77A9mrafXQHUABmLDLnY7owgaUGA1UdIwSBnTCBmoAU04FO2cZhF2xH
qA2DNvi6fiz4tquhd6R1MHMxCzAJBgNVBAYTAkZSMQwwCgYDVQQIEwNJREYxDjAM
BgNVBAcTBVBhcmlzMS8wLQYDVQQKEyZMb2NhbCBOT0RFLU9QQ1VBIENlcnRpZmlj
YXRlIEF1dGhvcml0eTEVMBMGA1UEAxMMTm9kZU9QQ1VBLUNBggkAhnHX7nESq+4w
SwYDVR0RBEQwQoYkdXJuOk5CNURTQ1I1MDMxOTFOQjpOb2RlT1BDVUEtQ2xpZW50
gglsb2NhbGhvc3SCD05CNURTQ1I1MDMxOTFOQjAsBglghkgBhvhCAQ0EHxYdT3Bl
blNTTCBHZW5lcmF0ZWQgQ2VydGlmaWNhdGUwDgYDVR0PAQH/BAQDAgL8MCAGA1Ud
JQEB/wQWMBQGCCsGAQUFBwMBBggrBgEFBQcDAjANBgkqhkiG9w0BAQsFAAOCAQEA
IFaDYJnrvHnLP8ft2HT+UU6XlMCreE6ndODFVb7jPtePPLRSiZBOmO0p+fSMSG2L
m3XplNusAe7/BnkIvCmgxtbVu01ONQ0V0o+yPi7kRFH9H9+zAb4Uhm3KPPaDnQNi
D1d4bpG3d2q2+44JCQPwvDa+Tb8R2o6kMKPJ/aXcxhdIzhtLHFm+x0+JHlOTzSHU
PL4rWqSZSAcvyzSDGIJT2TbFUslJglzDt4j17MV+YpAPprQJ5dILFec/vW+vpJe9
UiMuyElcPI2WOL+UQRvSWnJ90NanSjHAuL4sU6MTMAuufG+wWxUTGrX30T934KEk
jTrdX40an8GpTs/PL4aszQ==
-----END CERTIFICATE-----
