Certificate:
    Data:
        Version: 3 (0x2)
        Serial Number: 4097 (0x1001)
    Signature Algorithm: sha256WithRSAEncryption
        Issuer: O=NodeOPCUA, CN=NodeOPCUA
        Validity
            Not Before: Sep  3 10:44:36 2018 GMT
            Not After : Sep  3 10:44:36 2019 GMT
        Subject: O=NodeOPCUA, CN=NodeOPCUA
        Subject Public Key Info:
            Public Key Algorithm: rsaEncryption
                Public-Key: (1024 bit)
                Modulus:
                    00:df:9b:6f:71:03:98:01:dc:ce:a7:9e:c2:b6:26:
                    e4:20:92:3d:2f:cf:31:ec:3e:a1:c1:ee:76:6b:3a:
                    69:94:a6:0c:fb:91:39:3b:95:8e:4b:4a:eb:63:7c:
                    bb:f2:35:32:2c:73:90:d3:fc:e4:f7:d9:28:d7:89:
                    72:70:0f:1b:fc:68:b7:75:08:cb:1a:87:aa:59:3c:
                    8f:6a:19:61:9f:91:55:6c:1c:1a:77:a9:48:08:b2:
                    15:e8:e6:aa:51:10:02:a9:ab:24:a3:92:5d:2a:68:
                    f7:41:7d:12:84:6d:07:13:55:24:0c:d9:b3:55:0e:
                    fa:d0:d9:5f:12:57:d3:0d:1f
                Exponent: 65537 (0x10001)
        X509v3 extensions:
            X509v3 Basic Constraints: critical
                CA:FALSE
            X509v3 Subject Key Identifier: 
                AD:B6:78:63:BE:C0:F6:6A:DA:7D:74:07:50:00:66:2C:32:E7:63:BA
            X509v3 Authority Key Identifier: 
                keyid:AD:B6:78:63:BE:C0:F6:6A:DA:7D:74:07:50:00:66:2C:32:E7:63:BA
                DirName:/O=NodeOPCUA/CN=NodeOPCUA
                serial:10:01

            X509v3 Subject Alternative Name: 
                URI:urn:NB5DSCR503191NB:NodeOPCUA-Client, DNS:localhost, DNS:NB5DSCR503191NB
            Netscape Comment: 
                OpenSSL Generated Certificate
            X509v3 Key Usage: critical
                Digital Signature, Non Repudiation, Key Encipherment, Data Encipherment, Key Agreement, Certificate Sign
            X509v3 Extended Key Usage: critical
                TLS Web Server Authentication, TLS Web Client Authentication
    Signature Algorithm: sha256WithRSAEncryption
         76:5a:2a:47:e3:af:6d:80:fd:de:33:4d:de:c6:c7:12:c4:4c:
         11:e4:39:27:b0:1c:92:af:4b:66:6f:fb:49:30:a4:a1:d4:27:
         73:79:f0:15:73:3b:7e:36:bf:25:43:d9:78:df:5a:aa:81:dc:
         33:b8:b2:d8:eb:18:76:77:2a:0d:9e:cf:5f:48:70:fd:5c:ee:
         44:58:76:3c:a9:9d:0f:18:2b:aa:00:38:0c:5d:f7:a9:d7:79:
         b2:a3:0e:ae:08:d8:d6:9e:9b:99:6e:fe:0b:ff:44:10:ba:06:
         15:f3:7b:e0:3e:a6:b0:38:2c:df:21:05:fc:86:3b:f9:75:34:
         66:8c
-----BEGIN CERTIFICATE-----
MIIC/jCCAmegAwIBAgICEAEwDQYJKoZIhvcNAQELBQAwKDESMBAGA1UEChMJTm9k
ZU9QQ1VBMRIwEAYDVQQDEwlOb2RlT1BDVUEwIhgPMjAxODA5MDMxMDQ0MzZaGA8y
MDE5MDkwMzEwNDQzNlowKDESMBAGA1UEChMJTm9kZU9QQ1VBMRIwEAYDVQQDEwlO
b2RlT1BDVUEwgZ8wDQYJKoZIhvcNAQEBBQADgY0AMIGJAoGBAN+bb3EDmAHczqee
wrYm5CCSPS/PMew+ocHudms6aZSmDPuROTuVjktK62N8u/I1MixzkNP85PfZKNeJ
cnAPG/xot3UIyxqHqlk8j2oZYZ+RVWwcGnepSAiyFejmqlEQAqmrJKOSXSpo90F9
EoRtBxNVJAzZs1UO+tDZXxJX0w0fAgMBAAGjggExMIIBLTAMBgNVHRMBAf8EAjAA
MB0GA1UdDgQWBBSttnhjvsD2atp9dAdQAGYsMudjujBRBgNVHSMESjBIgBSttnhj
vsD2atp9dAdQAGYsMudjuqEspCowKDESMBAGA1UEChMJTm9kZU9QQ1VBMRIwEAYD
VQQDEwlOb2RlT1BDVUGCAhABMEsGA1UdEQREMEKGJHVybjpOQjVEU0NSNTAzMTkx
TkI6Tm9kZU9QQ1VBLUNsaWVudIIJbG9jYWxob3N0gg9OQjVEU0NSNTAzMTkxTkIw
LAYJYIZIAYb4QgENBB8WHU9wZW5TU0wgR2VuZXJhdGVkIENlcnRpZmljYXRlMA4G
A1UdDwEB/wQEAwIC/DAgBgNVHSUBAf8EFjAUBggrBgEFBQcDAQYIKwYBBQUHAwIw
DQYJKoZIhvcNAQELBQADgYEAdloqR+OvbYD93jNN3sbHEsRMEeQ5J7Ackq9LZm/7
STCkodQnc3nwFXM7fja/JUPZeN9aqoHcM7iy2OsYdncqDZ7PX0hw/VzuRFh2PKmd
DxgrqgA4DF33qdd5sqMOrgjY1p6bmW7+C/9EELoGFfN74D6msDgs3yEF/IY7+XU0
Zow=
-----END CERTIFICATE-----
