Certificate:
    Data:
        Version: 3 (0x2)
        Serial Number: 4097 (0x1001)
    Signature Algorithm: sha256WithRSAEncryption
        Issuer: O=NodeOPCUA, CN=NodeOPCUA
        Validity
            Not Before: Aug 30 09:25:25 2017 GMT
            Not After : Aug 30 09:25:25 2018 GMT
        Subject: O=NodeOPCUA, CN=NodeOPCUA
        Subject Public Key Info:
            Public Key Algorithm: rsaEncryption
                Public-Key: (1024 bit)
                Modulus:
                    00:9e:de:86:f2:aa:1b:ea:4f:0e:8f:cc:91:d4:f5:
                    00:43:5e:58:3e:f8:a9:dd:2f:9f:cb:d2:c6:7a:74:
                    04:64:9c:48:67:3b:7b:8d:84:f8:45:13:0a:a8:3e:
                    a2:de:c8:51:15:e4:7d:ee:49:be:7a:43:42:96:6e:
                    16:7a:a9:34:56:42:3b:47:71:27:0f:56:79:0a:58:
                    a2:39:56:b4:ba:47:a9:3e:8d:04:8a:7b:43:b4:27:
                    7f:5e:8e:01:bb:23:13:db:d5:41:ec:e1:2d:29:0d:
                    b0:db:14:7d:18:20:51:22:42:20:a1:6a:e5:f1:a3:
                    f4:9f:b2:aa:43:b0:d8:83:51
                Exponent: 65537 (0x10001)
        X509v3 extensions:
            X509v3 Basic Constraints: critical
                CA:FALSE
            X509v3 Subject Key Identifier: 
                A1:DA:79:2C:6C:D7:57:19:DE:D1:24:B5:FB:55:C0:62:92:E0:EB:37
            X509v3 Authority Key Identifier: 
                keyid:A1:DA:79:2C:6C:D7:57:19:DE:D1:24:B5:FB:55:C0:62:92:E0:EB:37
                DirName:/O=NodeOPCUA/CN=NodeOPCUA
                serial:10:01

            X509v3 Subject Alternative Name: 
                URI:urn:MUCKI:NodeOPCUA-Client, DNS:localhost, DNS:MUCKI
            Netscape Comment: 
                OpenSSL Generated Certificate
            X509v3 Key Usage: critical
                Digital Signature, Non Repudiation, Key Encipherment, Data Encipherment, Key Agreement, Certificate Sign
            X509v3 Extended Key Usage: critical
                TLS Web Server Authentication, TLS Web Client Authentication
    Signature Algorithm: sha256WithRSAEncryption
         3e:2c:50:6d:0f:dd:08:5d:a2:d6:7e:88:f7:9e:d6:2d:47:63:
         ec:c2:69:99:ef:82:7b:4e:3a:4d:df:7e:63:3a:c4:69:46:4f:
         07:a0:0b:16:af:73:1d:04:a3:68:34:3a:7e:c1:5b:35:f0:95:
         f2:1c:00:e4:71:78:eb:87:1e:5e:65:14:37:b4:d8:a3:68:7d:
         71:76:8a:e9:a1:d1:79:96:0c:a4:db:54:78:02:5d:f8:43:04:
         7a:be:46:71:fc:c3:1a:2f:66:b6:f3:97:e4:82:dd:f3:a0:f2:
         91:7e:50:9e:01:9a:44:cc:b4:c7:71:23:34:a9:7c:f9:36:0c:
         ba:5f
-----BEGIN CERTIFICATE-----
MIIC6jCCAlOgAwIBAgICEAEwDQYJKoZIhvcNAQELBQAwKDESMBAGA1UEChMJTm9k
ZU9QQ1VBMRIwEAYDVQQDEwlOb2RlT1BDVUEwIhgPMjAxNzA4MzAwOTI1MjVaGA8y
MDE4MDgzMDA5MjUyNVowKDESMBAGA1UEChMJTm9kZU9QQ1VBMRIwEAYDVQQDEwlO
b2RlT1BDVUEwgZ8wDQYJKoZIhvcNAQEBBQADgY0AMIGJAoGBAJ7ehvKqG+pPDo/M
kdT1AENeWD74qd0vn8vSxnp0BGScSGc7e42E+EUTCqg+ot7IURXkfe5JvnpDQpZu
FnqpNFZCO0dxJw9WeQpYojlWtLpHqT6NBIp7Q7Qnf16OAbsjE9vVQezhLSkNsNsU
fRggUSJCIKFq5fGj9J+yqkOw2INRAgMBAAGjggEdMIIBGTAMBgNVHRMBAf8EAjAA
MB0GA1UdDgQWBBSh2nksbNdXGd7RJLX7VcBikuDrNzBRBgNVHSMESjBIgBSh2nks
bNdXGd7RJLX7VcBikuDrN6EspCowKDESMBAGA1UEChMJTm9kZU9QQ1VBMRIwEAYD
VQQDEwlOb2RlT1BDVUGCAhABMDcGA1UdEQQwMC6GGnVybjpNVUNLSTpOb2RlT1BD
VUEtQ2xpZW50gglsb2NhbGhvc3SCBU1VQ0tJMCwGCWCGSAGG+EIBDQQfFh1PcGVu
U1NMIEdlbmVyYXRlZCBDZXJ0aWZpY2F0ZTAOBgNVHQ8BAf8EBAMCAvwwIAYDVR0l
AQH/BBYwFAYIKwYBBQUHAwEGCCsGAQUFBwMCMA0GCSqGSIb3DQEBCwUAA4GBAD4s
UG0P3QhdotZ+iPee1i1HY+zCaZnvgntOOk3ffmM6xGlGTwegCxavcx0Eo2g0On7B
WzXwlfIcAORxeOuHHl5lFDe02KNofXF2iumh0XmWDKTbVHgCXfhDBHq+RnH8wxov
Zrbzl+SC3fOg8pF+UJ4BmkTMtMdxIzSpfPk2DLpf
-----END CERTIFICATE-----
