Certificate:
    Data:
        Version: 3 (0x2)
        Serial Number: 4098 (0x1002)
    Signature Algorithm: sha256WithRSAEncryption
        Issuer: C=FR, ST=IDF, L=Paris, O=Local NODE-OPCUA Certificate Authority, CN=NodeOPCUA-CA
        Validity
            Not Before: Sep  3 10:44:36 2018 GMT
            Not After : Sep  3 10:44:36 2019 GMT
        Subject: C=FR, O=NodeOPCUA, CN=NodeOPCUA
        Subject Public Key Info:
            Public Key Algorithm: rsaEncryption
                Public-Key: (2048 bit)
                Modulus:
                    00:c8:e9:fe:fb:8f:d9:46:08:fb:6a:87:23:77:2e:
                    d7:98:2f:5e:c1:f7:f8:58:e3:a0:00:41:23:49:60:
                    34:d1:e4:a5:7a:4a:88:f4:1e:da:e8:e5:45:73:f1:
                    52:fc:e0:16:3d:c4:93:df:95:a7:39:e1:1d:16:ba:
                    05:b0:13:7b:5f:4e:f7:02:60:ad:5a:2f:5d:78:47:
                    0a:7a:d5:51:a1:02:04:d7:6a:26:29:9c:30:56:39:
                    ec:09:cc:c6:df:c1:8d:09:ef:a9:93:e3:0e:4f:66:
                    23:b2:13:f7:af:83:ad:fe:06:bb:fb:f8:1e:49:d6:
                    e6:66:6e:44:86:26:c1:a9:9d:1c:cc:46:bd:49:48:
                    40:a9:42:10:67:1f:ea:73:c4:94:d5:72:a7:57:4f:
                    63:9c:fb:35:2b:ae:06:2b:27:7e:87:c9:4d:ef:c8:
                    ce:75:ee:21:6c:b9:f6:fd:df:67:1a:43:3a:72:b4:
                    e4:b6:9c:64:5b:54:c9:3b:43:20:a8:5c:58:66:69:
                    94:b9:d8:f7:fe:f7:ea:59:77:fa:61:0a:ba:09:89:
                    dc:92:2a:9f:23:9b:0d:a3:76:9c:ec:9e:b8:e2:ca:
                    9f:17:3c:46:ae:94:a7:9b:52:53:65:d9:db:e5:51:
                    ab:07:d3:a5:78:f8:6b:0d:94:12:b3:47:e9:ac:a7:
                    6e:27
                Exponent: 65537 (0x10001)
        X509v3 extensions:
            X509v3 Basic Constraints: critical
                CA:FALSE
            X509v3 Subject Key Identifier: 
                07:54:D2:6F:D2:51:2C:33:06:F2:01:18:7F:5D:46:0F:B1:B2:A1:30
            X509v3 Authority Key Identifier: 
                keyid:D3:81:4E:D9:C6:61:17:6C:47:A8:0D:83:36:F8:BA:7E:2C:F8:B6:AB
                DirName:/C=FR/ST=IDF/L=Paris/O=Local NODE-OPCUA Certificate Authority/CN=NodeOPCUA-CA
                serial:86:71:D7:EE:71:12:AB:EE

            X509v3 Subject Alternative Name: 
                URI:urn:NB5DSCR503191NB:NodeOPCUA-Client, DNS:localhost, DNS:NB5DSCR503191NB
            Netscape Comment: 
                OpenSSL Generated Certificate
            X509v3 Key Usage: critical
                Digital Signature, Non Repudiation, Key Encipherment, Data Encipherment, Key Agreement, Certificate Sign
            X509v3 Extended Key Usage: critical
                TLS Web Server Authentication, TLS Web Client Authentication
    Signature Algorithm: sha256WithRSAEncryption
         29:5a:35:e8:f5:d9:0f:30:ba:a6:b1:de:35:08:1b:c2:c5:58:
         74:1b:95:46:9d:84:0d:8e:da:b1:f2:97:5f:a7:ce:62:e9:03:
         ac:a2:92:8d:ca:97:13:ff:29:8a:69:13:0b:1e:d8:d9:c9:cd:
         83:99:f0:79:7e:73:8a:7a:9e:86:25:3b:20:ed:4f:e0:00:a8:
         10:bc:46:c9:d1:19:b7:bb:74:94:8d:b8:cf:f8:dd:5f:8d:92:
         aa:ad:cb:b5:70:46:65:ff:17:2b:9c:1f:c4:0f:46:d6:be:fa:
         8c:9c:10:aa:36:be:cd:ba:ff:0e:29:91:14:19:f7:6e:9f:ec:
         67:ef:bb:0d:cf:13:87:1b:0e:e6:79:ea:ae:09:92:9e:35:b7:
         56:3f:ae:d2:d9:7b:54:43:d9:fd:a7:6c:c4:0a:b4:f8:fe:89:
         64:8c:7f:2e:73:c0:50:7b:ba:85:9c:21:15:86:9b:fa:a3:15:
         97:a2:5c:12:02:ec:80:0e:c9:91:39:ad:76:da:5e:06:c9:52:
         64:d9:6c:59:7b:ed:d6:24:30:af:51:75:c3:bd:9a:8d:9c:51:
         c8:d0:65:a1:45:27:51:64:9f:05:7d:12:21:bf:02:bd:4c:5f:
         1c:45:e8:95:09:74:c2:98:73:e7:99:6c:f4:a1:06:fc:f0:ad:
         7d:d6:33:b8
-----BEGIN CERTIFICATE-----
MIIEsDCCA5igAwIBAgICEAIwDQYJKoZIhvcNAQELBQAwczELMAkGA1UEBhMCRlIx
DDAKBgNVBAgTA0lERjEOMAwGA1UEBxMFUGFyaXMxLzAtBgNVBAoTJkxvY2FsIE5P
REUtT1BDVUEgQ2VydGlmaWNhdGUgQXV0aG9yaXR5MRUwEwYDVQQDEwxOb2RlT1BD
VUEtQ0EwIhgPMjAxODA5MDMxMDQ0MzZaGA8yMDE5MDkwMzEwNDQzNlowNTELMAkG
A1UEBhMCRlIxEjAQBgNVBAoMCU5vZGVPUENVQTESMBAGA1UEAwwJTm9kZU9QQ1VB
MIIBIjANBgkqhkiG9w0BAQEFAAOCAQ8AMIIBCgKCAQEAyOn++4/ZRgj7aocjdy7X
mC9ewff4WOOgAEEjSWA00eSlekqI9B7a6OVFc/FS/OAWPcST35WnOeEdFroFsBN7
X073AmCtWi9deEcKetVRoQIE12omKZwwVjnsCczG38GNCe+pk+MOT2YjshP3r4Ot
/ga7+/geSdbmZm5EhibBqZ0czEa9SUhAqUIQZx/qc8SU1XKnV09jnPs1K64GKyd+
h8lN78jOde4hbLn2/d9nGkM6crTktpxkW1TJO0MgqFxYZmmUudj3/vfqWXf6YQq6
CYnckiqfI5sNo3ac7J644sqfFzxGrpSnm1JTZdnb5VGrB9OlePhrDZQSs0fprKdu
JwIDAQABo4IBhjCCAYIwDAYDVR0TAQH/BAIwADAdBgNVHQ4EFgQUB1TSb9JRLDMG
8gEYf11GD7GyoTAwgaUGA1UdIwSBnTCBmoAU04FO2cZhF2xHqA2DNvi6fiz4tquh
d6R1MHMxCzAJBgNVBAYTAkZSMQwwCgYDVQQIEwNJREYxDjAMBgNVBAcTBVBhcmlz
MS8wLQYDVQQKEyZMb2NhbCBOT0RFLU9QQ1VBIENlcnRpZmljYXRlIEF1dGhvcml0
eTEVMBMGA1UEAxMMTm9kZU9QQ1VBLUNBggkAhnHX7nESq+4wSwYDVR0RBEQwQoYk
dXJuOk5CNURTQ1I1MDMxOTFOQjpOb2RlT1BDVUEtQ2xpZW50gglsb2NhbGhvc3SC
D05CNURTQ1I1MDMxOTFOQjAsBglghkgBhvhCAQ0EHxYdT3BlblNTTCBHZW5lcmF0
ZWQgQ2VydGlmaWNhdGUwDgYDVR0PAQH/BAQDAgL8MCAGA1UdJQEB/wQWMBQGCCsG
AQUFBwMBBggrBgEFBQcDAjANBgkqhkiG9w0BAQsFAAOCAQEAKVo16PXZDzC6prHe
NQgbwsVYdBuVRp2EDY7asfKXX6fOYukDrKKSjcqXE/8pimkTCx7Y2cnNg5nweX5z
inqehiU7IO1P4ACoELxGydEZt7t0lI24z/jdX42Sqq3LtXBGZf8XK5wfxA9G1r76
jJwQqja+zbr/DimRFBn3bp/sZ++7Dc8ThxsO5nnqrgmSnjW3Vj+u0tl7VEPZ/ads
xAq0+P6JZIx/LnPAUHu6hZwhFYab+qMVl6JcEgLsgA7JkTmtdtpeBslSZNlsWXvt
1iQwr1F1w72ajZxRyNBloUUnUWSfBX0SIb8CvUxfHEXolQl0wphz55ls9KEG/PCt
fdYzuA==
-----END CERTIFICATE-----
