Certificate:
    Data:
        Version: 3 (0x2)
        Serial Number: 4098 (0x1002)
    Signature Algorithm: sha256WithRSAEncryption
        Issuer: C=FR, ST=IDF, L=Paris, O=Local NODE-OPCUA Certificate Authority, CN=NodeOPCUA-CA
        Validity
            Not Before: Aug 30 09:25:25 2017 GMT
            Not After : Aug 30 09:25:25 2018 GMT
        Subject: C=FR, O=NodeOPCUA, CN=NodeOPCUA
        Subject Public Key Info:
            Public Key Algorithm: rsaEncryption
                Public-Key: (2048 bit)
                Modulus:
                    00:c6:d8:12:eb:b7:9f:31:be:28:57:cd:e8:bf:cc:
                    ed:79:20:36:23:e6:2c:2c:03:38:07:7b:6c:16:a3:
                    b5:7a:31:6a:de:6e:af:cd:74:7b:7b:d1:e1:36:31:
                    1b:81:09:95:61:95:09:aa:0b:1f:26:21:07:22:d8:
                    10:8e:cf:1d:1b:b9:c7:8f:21:6f:a3:10:8c:2b:3e:
                    12:fb:70:5f:f8:ee:dd:53:47:64:23:3b:c6:dc:fa:
                    5e:39:4e:79:ac:f1:21:2b:3f:f8:63:dc:97:4b:fa:
                    b3:7e:18:ee:46:94:1e:e5:1c:9c:ef:3b:0a:b8:3a:
                    86:d3:ff:94:49:7e:25:c6:be:4e:8f:b6:94:83:ec:
                    3e:2f:12:d2:be:db:af:fc:54:08:01:69:b9:c9:85:
                    00:8f:ca:a9:e8:56:7e:11:73:32:7c:1e:6c:fb:a8:
                    c1:f5:3d:56:b7:40:d2:d1:78:c5:5f:8b:e7:fb:ad:
                    a2:83:ba:e0:d5:7d:ca:f3:03:6c:60:ad:83:c4:ff:
                    80:fc:35:dc:86:5e:a4:72:19:c5:6f:5b:f7:4e:b8:
                    c9:73:28:71:19:f7:0c:c5:f6:89:5a:f2:21:32:dc:
                    a5:59:a6:d3:d2:c0:99:66:0b:51:a1:01:b4:38:4b:
                    58:4b:33:81:c1:9e:62:5d:12:91:60:e4:15:e1:84:
                    cc:75
                Exponent: 65537 (0x10001)
        X509v3 extensions:
            X509v3 Basic Constraints: critical
                CA:FALSE
            X509v3 Subject Key Identifier: 
                F1:ED:AF:1C:8B:6C:F5:A1:F5:A5:2B:82:A9:A6:3A:6F:8F:96:F8:5B
            X509v3 Authority Key Identifier: 
                keyid:84:FF:9C:93:B1:D0:E8:CE:A2:B6:D0:C9:6C:1E:04:B4:6E:43:47:DF
                DirName:/C=FR/ST=IDF/L=Paris/O=Local NODE-OPCUA Certificate Authority/CN=NodeOPCUA-CA
                serial:8D:7E:27:B2:25:30:DA:6F

            X509v3 Subject Alternative Name: 
                URI:urn:MUCKI:NodeOPCUA-Client, DNS:localhost, DNS:MUCKI
            Netscape Comment: 
                OpenSSL Generated Certificate
            X509v3 Key Usage: critical
                Digital Signature, Non Repudiation, Key Encipherment, Data Encipherment, Key Agreement, Certificate Sign
            X509v3 Extended Key Usage: critical
                TLS Web Server Authentication, TLS Web Client Authentication
    Signature Algorithm: sha256WithRSAEncryption
         74:da:fa:93:f7:f7:44:3a:7e:1f:7d:51:6f:df:21:93:f2:e1:
         82:16:aa:87:ed:47:35:00:5c:c6:55:f0:4e:0a:76:ac:60:24:
         e7:d3:90:14:63:ac:cc:f0:fb:a0:bb:6c:5a:a7:f2:f0:1d:9c:
         04:57:4b:9a:5c:1d:62:d1:14:6f:28:8b:10:09:63:9b:19:7d:
         72:64:9c:13:9f:6a:3a:43:cd:4b:aa:fd:3a:0b:eb:02:3c:e0:
         f1:0d:b0:dc:fb:bb:ee:7b:57:f9:0e:8d:20:e3:2f:82:ef:47:
         6c:e6:dd:93:5f:6d:2a:aa:c0:f6:dd:41:51:98:b5:e3:aa:03:
         d5:ba:90:cc:77:43:62:02:7c:6b:21:b2:52:22:ad:2d:43:f8:
         7b:8b:ea:62:2b:98:67:d8:67:27:05:a7:05:87:37:48:5e:56:
         db:30:e4:80:8c:46:3b:96:9e:a4:bb:f8:d1:07:76:16:3e:ad:
         16:e8:41:9a:7a:a2:d7:fc:d5:cd:a8:08:7a:a0:f0:c0:b3:c4:
         8d:4b:14:4f:ca:58:36:13:dc:93:f3:94:85:db:02:6c:2d:32:
         75:09:1c:4d:9b:45:14:ee:75:27:da:54:2e:7a:70:93:4c:f1:
         94:0d:91:5f:00:e7:5a:1c:80:f0:f2:ec:77:55:f5:ee:6d:c5:
         bf:f4:d9:56
-----BEGIN CERTIFICATE-----
MIIEnDCCA4SgAwIBAgICEAIwDQYJKoZIhvcNAQELBQAwczELMAkGA1UEBhMCRlIx
DDAKBgNVBAgTA0lERjEOMAwGA1UEBxMFUGFyaXMxLzAtBgNVBAoTJkxvY2FsIE5P
REUtT1BDVUEgQ2VydGlmaWNhdGUgQXV0aG9yaXR5MRUwEwYDVQQDEwxOb2RlT1BD
VUEtQ0EwIhgPMjAxNzA4MzAwOTI1MjVaGA8yMDE4MDgzMDA5MjUyNVowNTELMAkG
A1UEBhMCRlIxEjAQBgNVBAoMCU5vZGVPUENVQTESMBAGA1UEAwwJTm9kZU9QQ1VB
MIIBIjANBgkqhkiG9w0BAQEFAAOCAQ8AMIIBCgKCAQEAxtgS67efMb4oV83ov8zt
eSA2I+YsLAM4B3tsFqO1ejFq3m6vzXR7e9HhNjEbgQmVYZUJqgsfJiEHItgQjs8d
G7nHjyFvoxCMKz4S+3Bf+O7dU0dkIzvG3PpeOU55rPEhKz/4Y9yXS/qzfhjuRpQe
5Ryc7zsKuDqG0/+USX4lxr5Oj7aUg+w+LxLSvtuv/FQIAWm5yYUAj8qp6FZ+EXMy
fB5s+6jB9T1Wt0DS0XjFX4vn+62ig7rg1X3K8wNsYK2DxP+A/DXchl6kchnFb1v3
TrjJcyhxGfcMxfaJWvIhMtylWabT0sCZZgtRoQG0OEtYSzOBwZ5iXRKRYOQV4YTM
dQIDAQABo4IBcjCCAW4wDAYDVR0TAQH/BAIwADAdBgNVHQ4EFgQU8e2vHIts9aH1
pSuCqaY6b4+W+FswgaUGA1UdIwSBnTCBmoAUhP+ck7HQ6M6ittDJbB4EtG5DR9+h
d6R1MHMxCzAJBgNVBAYTAkZSMQwwCgYDVQQIEwNJREYxDjAMBgNVBAcTBVBhcmlz
MS8wLQYDVQQKEyZMb2NhbCBOT0RFLU9QQ1VBIENlcnRpZmljYXRlIEF1dGhvcml0
eTEVMBMGA1UEAxMMTm9kZU9QQ1VBLUNBggkAjX4nsiUw2m8wNwYDVR0RBDAwLoYa
dXJuOk1VQ0tJOk5vZGVPUENVQS1DbGllbnSCCWxvY2FsaG9zdIIFTVVDS0kwLAYJ
YIZIAYb4QgENBB8WHU9wZW5TU0wgR2VuZXJhdGVkIENlcnRpZmljYXRlMA4GA1Ud
DwEB/wQEAwIC/DAgBgNVHSUBAf8EFjAUBggrBgEFBQcDAQYIKwYBBQUHAwIwDQYJ
KoZIhvcNAQELBQADggEBAHTa+pP390Q6fh99UW/fIZPy4YIWqoftRzUAXMZV8E4K
dqxgJOfTkBRjrMzw+6C7bFqn8vAdnARXS5pcHWLRFG8oixAJY5sZfXJknBOfajpD
zUuq/ToL6wI84PENsNz7u+57V/kOjSDjL4LvR2zm3ZNfbSqqwPbdQVGYteOqA9W6
kMx3Q2ICfGshslIirS1D+HuL6mIrmGfYZycFpwWHN0heVtsw5ICMRjuWnqS7+NEH
dhY+rRboQZp6otf81c2oCHqg8MCzxI1LFE/KWDYT3JPzlIXbAmwtMnUJHE2bRRTu
dSfaVC56cJNM8ZQNkV8A51ocgPDy7HdV9e5txb/02VY=
-----END CERTIFICATE-----
