Certificate:
    Data:
        Version: 3 (0x2)
        Serial Number: 4099 (0x1003)
    Signature Algorithm: sha256WithRSAEncryption
        Issuer: O=NodeOPCUA, CN=NodeOPCUA
        Validity
            Not Before: Aug 30 09:25:25 2017 GMT
            Not After : Aug 30 09:25:25 2018 GMT
        Subject: O=NodeOPCUA, CN=NodeOPCUA
        Subject Public Key Info:
            Public Key Algorithm: rsaEncryption
                Public-Key: (2048 bit)
                Modulus:
                    00:c6:d8:12:eb:b7:9f:31:be:28:57:cd:e8:bf:cc:
                    ed:79:20:36:23:e6:2c:2c:03:38:07:7b:6c:16:a3:
                    b5:7a:31:6a:de:6e:af:cd:74:7b:7b:d1:e1:36:31:
                    1b:81:09:95:61:95:09:aa:0b:1f:26:21:07:22:d8:
                    10:8e:cf:1d:1b:b9:c7:8f:21:6f:a3:10:8c:2b:3e:
                    12:fb:70:5f:f8:ee:dd:53:47:64:23:3b:c6:dc:fa:
                    5e:39:4e:79:ac:f1:21:2b:3f:f8:63:dc:97:4b:fa:
                    b3:7e:18:ee:46:94:1e:e5:1c:9c:ef:3b:0a:b8:3a:
                    86:d3:ff:94:49:7e:25:c6:be:4e:8f:b6:94:83:ec:
                    3e:2f:12:d2:be:db:af:fc:54:08:01:69:b9:c9:85:
                    00:8f:ca:a9:e8:56:7e:11:73:32:7c:1e:6c:fb:a8:
                    c1:f5:3d:56:b7:40:d2:d1:78:c5:5f:8b:e7:fb:ad:
                    a2:83:ba:e0:d5:7d:ca:f3:03:6c:60:ad:83:c4:ff:
                    80:fc:35:dc:86:5e:a4:72:19:c5:6f:5b:f7:4e:b8:
                    c9:73:28:71:19:f7:0c:c5:f6:89:5a:f2:21:32:dc:
                    a5:59:a6:d3:d2:c0:99:66:0b:51:a1:01:b4:38:4b:
                    58:4b:33:81:c1:9e:62:5d:12:91:60:e4:15:e1:84:
                    cc:75
                Exponent: 65537 (0x10001)
        X509v3 extensions:
            X509v3 Basic Constraints: critical
                CA:FALSE
            X509v3 Subject Key Identifier: 
                F1:ED:AF:1C:8B:6C:F5:A1:F5:A5:2B:82:A9:A6:3A:6F:8F:96:F8:5B
            X509v3 Authority Key Identifier: 
                keyid:F1:ED:AF:1C:8B:6C:F5:A1:F5:A5:2B:82:A9:A6:3A:6F:8F:96:F8:5B
                DirName:/O=NodeOPCUA/CN=NodeOPCUA
                serial:10:03

            X509v3 Subject Alternative Name: 
                URI:urn:MUCKI:NodeOPCUA-Client, DNS:localhost, DNS:MUCKI
            Netscape Comment: 
                OpenSSL Generated Certificate
            X509v3 Key Usage: critical
                Digital Signature, Non Repudiation, Key Encipherment, Data Encipherment, Key Agreement, Certificate Sign
            X509v3 Extended Key Usage: critical
                TLS Web Server Authentication, TLS Web Client Authentication
    Signature Algorithm: sha256WithRSAEncryption
         a0:58:ad:34:a1:82:22:fd:b6:96:39:bb:bb:39:56:05:9d:ba:
         2d:13:ae:39:85:21:d5:47:20:1b:78:2f:8b:90:45:72:bd:ed:
         79:e4:06:21:7c:66:d8:9d:5c:4e:7a:92:84:30:29:fa:45:65:
         66:f5:59:cc:62:ab:54:58:ce:68:5c:ad:9f:62:1a:88:e6:09:
         1e:67:1e:f3:71:95:9d:1e:3c:54:ca:ac:f0:f8:98:4d:3e:ec:
         dc:0a:05:ac:36:56:6c:5a:40:b0:2a:05:37:8c:d5:c6:ea:ad:
         1d:37:64:56:7d:1b:78:db:2d:1d:47:de:f8:2d:a1:3d:7b:5a:
         a6:17:21:65:ce:9d:57:9a:71:a0:c0:48:18:93:a2:dc:fe:30:
         15:ef:0b:9b:74:c5:48:f2:53:cc:09:2f:8e:f4:6b:22:84:11:
         f1:c3:a3:01:79:94:e4:58:d7:0b:73:ca:50:76:09:d5:96:26:
         48:43:5a:2e:b9:c3:df:46:fe:a4:8b:2f:e7:24:f6:88:eb:a7:
         88:95:33:52:ba:ac:df:4f:05:ed:dc:a0:9f:3c:75:4e:53:a5:
         2a:7e:32:51:34:fe:64:5c:a4:23:27:b9:b4:ee:82:65:4b:82:
         f2:8f:a4:f0:12:67:50:8e:f6:c7:b4:e7:0f:20:3d:58:11:1c:
         7d:f5:21:1b
-----BEGIN CERTIFICATE-----
MIID7zCCAtegAwIBAgICEAMwDQYJKoZIhvcNAQELBQAwKDESMBAGA1UEChMJTm9k
ZU9QQ1VBMRIwEAYDVQQDEwlOb2RlT1BDVUEwIhgPMjAxNzA4MzAwOTI1MjVaGA8y
MDE4MDgzMDA5MjUyNVowKDESMBAGA1UEChMJTm9kZU9QQ1VBMRIwEAYDVQQDEwlO
b2RlT1BDVUEwggEiMA0GCSqGSIb3DQEBAQUAA4IBDwAwggEKAoIBAQDG2BLrt58x
vihXzei/zO15IDYj5iwsAzgHe2wWo7V6MWrebq/NdHt70eE2MRuBCZVhlQmqCx8m
IQci2BCOzx0bucePIW+jEIwrPhL7cF/47t1TR2QjO8bc+l45Tnms8SErP/hj3JdL
+rN+GO5GlB7lHJzvOwq4OobT/5RJfiXGvk6PtpSD7D4vEtK+26/8VAgBabnJhQCP
yqnoVn4RczJ8Hmz7qMH1PVa3QNLReMVfi+f7raKDuuDVfcrzA2xgrYPE/4D8NdyG
XqRyGcVvW/dOuMlzKHEZ9wzF9ola8iEy3KVZptPSwJlmC1GhAbQ4S1hLM4HBnmJd
EpFg5BXhhMx1AgMBAAGjggEdMIIBGTAMBgNVHRMBAf8EAjAAMB0GA1UdDgQWBBTx
7a8ci2z1ofWlK4Kppjpvj5b4WzBRBgNVHSMESjBIgBTx7a8ci2z1ofWlK4Kppjpv
j5b4W6EspCowKDESMBAGA1UEChMJTm9kZU9QQ1VBMRIwEAYDVQQDEwlOb2RlT1BD
VUGCAhADMDcGA1UdEQQwMC6GGnVybjpNVUNLSTpOb2RlT1BDVUEtQ2xpZW50ggls
b2NhbGhvc3SCBU1VQ0tJMCwGCWCGSAGG+EIBDQQfFh1PcGVuU1NMIEdlbmVyYXRl
ZCBDZXJ0aWZpY2F0ZTAOBgNVHQ8BAf8EBAMCAvwwIAYDVR0lAQH/BBYwFAYIKwYB
BQUHAwEGCCsGAQUFBwMCMA0GCSqGSIb3DQEBCwUAA4IBAQCgWK00oYIi/baWObu7
OVYFnbotE645hSHVRyAbeC+LkEVyve155AYhfGbYnVxOepKEMCn6RWVm9VnMYqtU
WM5oXK2fYhqI5gkeZx7zcZWdHjxUyqzw+JhNPuzcCgWsNlZsWkCwKgU3jNXG6q0d
N2RWfRt42y0dR974LaE9e1qmFyFlzp1XmnGgwEgYk6Lc/jAV7wubdMVI8lPMCS+O
9GsihBHxw6MBeZTkWNcLc8pQdgnVliZIQ1ouucPfRv6kiy/nJPaI66eIlTNSuqzf
TwXt3KCfPHVOU6UqfjJRNP5kXKQjJ7m07oJlS4Lyj6TwEmdQjvbHtOcPID1YERx9
9SEb
-----END CERTIFICATE-----
