Certificate:
    Data:
        Version: 3 (0x2)
        Serial Number: 4100 (0x1004)
    Signature Algorithm: sha256WithRSAEncryption
        Issuer: C=FR, ST=IDF, L=Paris, O=Local NODE-OPCUA Certificate Authority, CN=NodeOPCUA-CA
        Validity
            Not Before: Sep  3 10:44:36 2018 GMT
            Not After : Sep  3 10:44:36 2019 GMT
        Subject: C=FR, O=NodeOPCUA, CN=NodeOPCUA
        Subject Public Key Info:
            Public Key Algorithm: rsaEncryption
                Public-Key: (1024 bit)
                Modulus:
                    00:d7:62:8c:5c:c7:de:3c:0e:ae:f9:fa:79:7e:fa:
                    a3:44:71:25:45:1e:37:30:9c:ee:c9:2d:12:52:c5:
                    ee:92:ce:b3:88:c0:a6:f8:a9:7d:02:01:a0:78:60:
                    3a:af:f1:ac:51:3d:dd:38:89:0f:28:28:9c:6b:ab:
                    fc:13:fe:82:42:d8:1d:eb:4a:60:c1:0d:90:46:43:
                    d7:73:c7:a3:bf:c3:ec:aa:67:c9:a5:56:85:2c:49:
                    3f:1d:d8:f8:f8:d0:5e:c0:47:96:c2:f8:87:6b:8d:
                    7b:14:ed:b6:d9:47:b7:08:b0:83:ac:2e:ba:05:ce:
                    d0:e8:9c:2c:95:32:e9:cc:a1
                Exponent: 65537 (0x10001)
        X509v3 extensions:
            X509v3 Basic Constraints: critical
                CA:FALSE
            X509v3 Subject Key Identifier: 
                2E:F5:E6:A9:D8:9E:0C:0D:07:B5:6E:97:6F:8E:F2:34:56:8F:66:92
            X509v3 Authority Key Identifier: 
                keyid:D3:81:4E:D9:C6:61:17:6C:47:A8:0D:83:36:F8:BA:7E:2C:F8:B6:AB
                DirName:/C=FR/ST=IDF/L=Paris/O=Local NODE-OPCUA Certificate Authority/CN=NodeOPCUA-CA
                serial:86:71:D7:EE:71:12:AB:EE

            X509v3 Subject Alternative Name: 
                URI:urn:NB5DSCR503191NB:NodeOPCUA-Server, DNS:localhost, DNS:NB5DSCR503191NB
            Netscape Comment: 
                OpenSSL Generated Certificate
            X509v3 Key Usage: critical
                Digital Signature, Non Repudiation, Key Encipherment, Data Encipherment, Key Agreement, Certificate Sign
            X509v3 Extended Key Usage: critical
                TLS Web Server Authentication, TLS Web Client Authentication
    Signature Algorithm: sha256WithRSAEncryption
         1a:8b:a9:b0:a9:df:84:aa:46:fb:a4:10:43:60:4f:ac:d9:1d:
         9c:c4:b3:12:e8:95:b2:26:14:fc:b0:c1:e2:82:5a:42:da:49:
         2f:34:4d:95:c4:d3:7f:5f:49:21:36:ad:d0:52:14:71:2a:76:
         be:b4:10:54:ff:b5:43:91:e0:49:30:1d:0e:da:17:47:73:47:
         7f:f5:be:e3:f0:9e:42:52:2e:ae:93:62:55:f4:27:eb:44:f5:
         9a:d0:e8:b8:80:f2:6a:c0:9c:8e:a2:5f:7b:e5:65:2c:d4:5f:
         90:3a:1d:4f:2e:9b:ea:62:c8:4b:39:6e:82:a6:48:ae:01:64:
         d2:c4:33:06:b3:06:36:c2:b8:10:50:5c:68:ea:8e:00:4c:8c:
         b9:fa:bc:c9:76:61:fe:6d:a4:3a:c5:e2:0d:ee:60:ed:66:4e:
         c9:e7:76:eb:2a:bb:4f:c6:06:35:52:b7:47:20:3d:6a:6a:9e:
         a4:52:8a:5b:11:f4:5b:c3:33:26:b6:04:9f:9c:c7:a2:50:4a:
         00:15:4d:9f:bf:ae:2d:6c:02:8c:24:ca:aa:3c:21:3d:09:d0:
         ed:39:1e:12:6f:53:0a:3f:0b:81:a9:2d:7b:0d:55:80:28:48:
         53:96:0b:f6:56:2a:c5:3a:1a:71:bc:64:fa:66:6a:5d:d4:5a:
         d6:71:08:e6
-----BEGIN CERTIFICATE-----
MIIELDCCAxSgAwIBAgICEAQwDQYJKoZIhvcNAQELBQAwczELMAkGA1UEBhMCRlIx
DDAKBgNVBAgTA0lERjEOMAwGA1UEBxMFUGFyaXMxLzAtBgNVBAoTJkxvY2FsIE5P
REUtT1BDVUEgQ2VydGlmaWNhdGUgQXV0aG9yaXR5MRUwEwYDVQQDEwxOb2RlT1BD
VUEtQ0EwIhgPMjAxODA5MDMxMDQ0MzZaGA8yMDE5MDkwMzEwNDQzNlowNTELMAkG
A1UEBhMCRlIxEjAQBgNVBAoMCU5vZGVPUENVQTESMBAGA1UEAwwJTm9kZU9QQ1VB
MIGfMA0GCSqGSIb3DQEBAQUAA4GNADCBiQKBgQDXYoxcx948Dq75+nl++qNEcSVF
HjcwnO7JLRJSxe6SzrOIwKb4qX0CAaB4YDqv8axRPd04iQ8oKJxrq/wT/oJC2B3r
SmDBDZBGQ9dzx6O/w+yqZ8mlVoUsST8d2Pj40F7AR5bC+IdrjXsU7bbZR7cIsIOs
LroFztDonCyVMunMoQIDAQABo4IBhjCCAYIwDAYDVR0TAQH/BAIwADAdBgNVHQ4E
FgQULvXmqdieDA0HtW6Xb47yNFaPZpIwgaUGA1UdIwSBnTCBmoAU04FO2cZhF2xH
qA2DNvi6fiz4tquhd6R1MHMxCzAJBgNVBAYTAkZSMQwwCgYDVQQIEwNJREYxDjAM
BgNVBAcTBVBhcmlzMS8wLQYDVQQKEyZMb2NhbCBOT0RFLU9QQ1VBIENlcnRpZmlj
YXRlIEF1dGhvcml0eTEVMBMGA1UEAxMMTm9kZU9QQ1VBLUNBggkAhnHX7nESq+4w
SwYDVR0RBEQwQoYkdXJuOk5CNURTQ1I1MDMxOTFOQjpOb2RlT1BDVUEtU2VydmVy
gglsb2NhbGhvc3SCD05CNURTQ1I1MDMxOTFOQjAsBglghkgBhvhCAQ0EHxYdT3Bl
blNTTCBHZW5lcmF0ZWQgQ2VydGlmaWNhdGUwDgYDVR0PAQH/BAQDAgL8MCAGA1Ud
JQEB/wQWMBQGCCsGAQUFBwMBBggrBgEFBQcDAjANBgkqhkiG9w0BAQsFAAOCAQEA
GoupsKnfhKpG+6QQQ2BPrNkdnMSzEuiVsiYU/LDB4oJaQtpJLzRNlcTTf19JITat
0FIUcSp2vrQQVP+1Q5HgSTAdDtoXR3NHf/W+4/CeQlIurpNiVfQn60T1mtDouIDy
asCcjqJfe+VlLNRfkDodTy6b6mLISzlugqZIrgFk0sQzBrMGNsK4EFBcaOqOAEyM
ufq8yXZh/m2kOsXiDe5g7WZOyed26yq7T8YGNVK3RyA9amqepFKKWxH0W8MzJrYE
n5zHolBKABVNn7+uLWwCjCTKqjwhPQnQ7TkeEm9TCj8Lgaktew1VgChIU5YL9lYq
xToacbxk+mZqXdRa1nEI5g==
-----END CERTIFICATE-----
