Certificate:
    Data:
        Version: 3 (0x2)
        Serial Number: 4103 (0x1007)
    Signature Algorithm: sha256WithRSAEncryption
        Issuer: O=NodeOPCUA, CN=NodeOPCUA
        Validity
            Not Before: Sep  3 10:44:36 2018 GMT
            Not After : Sep  3 10:44:36 2019 GMT
        Subject: O=NodeOPCUA, CN=NodeOPCUA
        Subject Public Key Info:
            Public Key Algorithm: rsaEncryption
                Public-Key: (2048 bit)
                Modulus:
                    00:f4:22:43:64:cd:57:a6:b6:ee:88:95:c6:73:e4:
                    fb:c9:cd:d9:65:4d:36:d8:a3:80:0f:44:ee:e0:6f:
                    f7:9a:20:24:c4:14:dc:79:d0:fc:1a:59:be:6d:03:
                    2a:36:cd:e3:43:04:59:c5:d1:d1:c0:bc:64:09:b4:
                    0c:1d:90:30:85:9d:cd:02:3a:ba:f6:c0:fa:61:2f:
                    57:a0:78:02:b9:16:bc:c2:73:5e:69:4a:29:6e:0e:
                    08:29:37:4b:cd:c9:48:f6:f4:40:84:c3:47:3d:05:
                    a9:6e:cd:f6:3b:bf:4e:f5:52:95:be:f8:f0:37:38:
                    fd:ae:10:89:4c:86:fd:96:4b:8a:68:76:33:9f:46:
                    4e:1a:16:14:65:d8:02:2e:65:c9:81:20:35:c8:2d:
                    12:ce:6c:a8:4c:b2:19:e8:d1:9b:a1:61:2d:74:46:
                    a3:07:6a:51:18:08:db:16:b8:6a:f7:45:6b:67:32:
                    c0:84:7f:b2:41:5a:1a:46:eb:df:68:e4:54:3f:89:
                    77:7f:71:31:95:10:a0:63:a3:fa:dd:37:cb:60:6b:
                    68:36:71:2e:9d:4c:17:97:b5:11:64:b0:f6:a8:a8:
                    35:12:38:16:4a:98:62:ab:32:ea:f1:82:29:c9:dc:
                    26:79:48:6d:a0:a9:a8:cb:b5:22:f4:d2:52:cf:ee:
                    fa:c3
                Exponent: 65537 (0x10001)
        X509v3 extensions:
            X509v3 Basic Constraints: critical
                CA:FALSE
            X509v3 Subject Key Identifier: 
                D3:8F:9F:0E:35:73:65:76:2C:BE:31:E7:A7:36:97:6F:BC:32:AD:9B
            X509v3 Authority Key Identifier: 
                keyid:D3:8F:9F:0E:35:73:65:76:2C:BE:31:E7:A7:36:97:6F:BC:32:AD:9B
                DirName:/O=NodeOPCUA/CN=NodeOPCUA
                serial:10:07

            X509v3 Subject Alternative Name: 
                URI:urn:NB5DSCR503191NB:NodeOPCUA-Server, DNS:localhost, DNS:NB5DSCR503191NB
            Netscape Comment: 
                OpenSSL Generated Certificate
            X509v3 Key Usage: critical
                Digital Signature, Non Repudiation, Key Encipherment, Data Encipherment, Key Agreement, Certificate Sign
            X509v3 Extended Key Usage: critical
                TLS Web Server Authentication, TLS Web Client Authentication
    Signature Algorithm: sha256WithRSAEncryption
         6d:5c:2a:6c:64:1d:1b:68:02:c6:d4:89:7b:b6:a2:b0:39:a4:
         77:51:87:92:a0:c4:63:ae:ec:f6:df:b0:b7:2b:5c:ac:b7:ea:
         ec:33:6d:3b:63:50:0d:ac:79:ae:6d:31:81:8f:da:96:b2:11:
         0b:e8:0c:a5:e5:1c:82:75:3c:cb:0d:5d:33:83:01:17:34:14:
         53:c0:79:84:a4:81:f5:ad:ad:7a:89:1b:11:1c:fd:4a:2d:60:
         8b:93:f5:15:4c:2b:19:37:20:29:4b:86:ac:35:6f:82:28:6e:
         7f:92:96:f9:4f:46:e1:e5:11:a4:44:be:81:fd:92:e9:4c:34:
         8f:44:be:cd:24:84:ed:5f:90:21:b5:62:9f:25:8f:74:4e:41:
         f9:62:68:d1:72:3a:0e:75:32:5a:e5:36:21:e4:0a:d9:68:04:
         a7:e1:f8:b7:28:ce:26:6c:ea:6e:6d:29:af:79:7e:1e:cb:98:
         0a:81:81:70:a9:a0:6a:2e:69:49:51:4c:70:7f:22:0c:1c:af:
         32:17:91:3a:e8:81:dd:f0:c3:b0:65:75:13:ce:59:b0:5b:25:
         25:78:75:65:6c:79:66:f0:05:00:3b:08:00:49:56:d6:ae:ea:
         53:01:e5:8d:94:e5:1c:16:67:a6:f5:d2:32:ce:a7:45:a6:89:
         df:39:05:e0
-----BEGIN CERTIFICATE-----
MIIEAzCCAuugAwIBAgICEAcwDQYJKoZIhvcNAQELBQAwKDESMBAGA1UEChMJTm9k
ZU9QQ1VBMRIwEAYDVQQDEwlOb2RlT1BDVUEwIhgPMjAxODA5MDMxMDQ0MzZaGA8y
MDE5MDkwMzEwNDQzNlowKDESMBAGA1UEChMJTm9kZU9QQ1VBMRIwEAYDVQQDEwlO
b2RlT1BDVUEwggEiMA0GCSqGSIb3DQEBAQUAA4IBDwAwggEKAoIBAQD0IkNkzVem
tu6IlcZz5PvJzdllTTbYo4APRO7gb/eaICTEFNx50PwaWb5tAyo2zeNDBFnF0dHA
vGQJtAwdkDCFnc0COrr2wPphL1egeAK5FrzCc15pSiluDggpN0vNyUj29ECEw0c9
BaluzfY7v071UpW++PA3OP2uEIlMhv2WS4podjOfRk4aFhRl2AIuZcmBIDXILRLO
bKhMshno0ZuhYS10RqMHalEYCNsWuGr3RWtnMsCEf7JBWhpG699o5FQ/iXd/cTGV
EKBjo/rdN8tga2g2cS6dTBeXtRFksPaoqDUSOBZKmGKrMurxginJ3CZ5SG2gqajL
tSL00lLP7vrDAgMBAAGjggExMIIBLTAMBgNVHRMBAf8EAjAAMB0GA1UdDgQWBBTT
j58ONXNldiy+MeenNpdvvDKtmzBRBgNVHSMESjBIgBTTj58ONXNldiy+MeenNpdv
vDKtm6EspCowKDESMBAGA1UEChMJTm9kZU9QQ1VBMRIwEAYDVQQDEwlOb2RlT1BD
VUGCAhAHMEsGA1UdEQREMEKGJHVybjpOQjVEU0NSNTAzMTkxTkI6Tm9kZU9QQ1VB
LVNlcnZlcoIJbG9jYWxob3N0gg9OQjVEU0NSNTAzMTkxTkIwLAYJYIZIAYb4QgEN
BB8WHU9wZW5TU0wgR2VuZXJhdGVkIENlcnRpZmljYXRlMA4GA1UdDwEB/wQEAwIC
/DAgBgNVHSUBAf8EFjAUBggrBgEFBQcDAQYIKwYBBQUHAwIwDQYJKoZIhvcNAQEL
BQADggEBAG1cKmxkHRtoAsbUiXu2orA5pHdRh5KgxGOu7PbfsLcrXKy36uwzbTtj
UA2sea5tMYGP2payEQvoDKXlHIJ1PMsNXTODARc0FFPAeYSkgfWtrXqJGxEc/Uot
YIuT9RVMKxk3IClLhqw1b4Iobn+SlvlPRuHlEaREvoH9kulMNI9Evs0khO1fkCG1
Yp8lj3ROQfliaNFyOg51MlrlNiHkCtloBKfh+LcoziZs6m5tKa95fh7LmAqBgXCp
oGouaUlRTHB/IgwcrzIXkTrogd3ww7BldRPOWbBbJSV4dWVseWbwBQA7CABJVtau
6lMB5Y2U5RwWZ6b10jLOp0Wmid85BeA=
-----END CERTIFICATE-----
