Certificate:
    Data:
        Version: 3 (0x2)
        Serial Number: 4104 (0x1008)
    Signature Algorithm: sha256WithRSAEncryption
        Issuer: C=FR, ST=IDF, L=Paris, O=Local NODE-OPCUA Certificate Authority, CN=NodeOPCUA-CA
        Validity
            Not Before: Sep  3 10:44:36 2018 GMT
            Not After : Sep  3 10:44:36 2019 GMT
        Subject: C=FR, O=NodeOPCUA, CN=NodeOPCUA
        Subject Public Key Info:
            Public Key Algorithm: rsaEncryption
                Public-Key: (1024 bit)
                Modulus:
                    00:bd:cd:b2:c7:e6:40:94:e2:a0:f2:ba:00:c3:db:
                    23:86:84:15:84:bd:21:88:7c:60:f3:eb:93:25:a4:
                    b8:9b:04:54:d1:7e:41:c4:9a:7a:6a:d4:4a:4d:01:
                    3d:34:c4:86:04:5c:81:b0:31:1c:d8:53:d2:90:32:
                    99:cc:f1:d9:0b:32:f2:4e:91:23:91:ec:3d:f6:8a:
                    57:b8:be:c5:5a:42:23:7f:c1:0b:78:07:09:84:ca:
                    15:33:d1:34:3c:62:31:df:b6:80:56:76:0f:3b:a5:
                    3f:83:9b:7c:2b:fc:20:be:4b:37:e9:d0:9b:ee:b9:
                    de:8e:43:e9:2e:5e:9d:ed:d1
                Exponent: 65537 (0x10001)
        X509v3 extensions:
            X509v3 Basic Constraints: critical
                CA:FALSE
            X509v3 Subject Key Identifier: 
                66:F4:6B:91:35:71:FE:64:26:08:E6:06:7D:D2:EA:7D:83:89:97:AE
            X509v3 Authority Key Identifier: 
                keyid:D3:81:4E:D9:C6:61:17:6C:47:A8:0D:83:36:F8:BA:7E:2C:F8:B6:AB
                DirName:/C=FR/ST=IDF/L=Paris/O=Local NODE-OPCUA Certificate Authority/CN=NodeOPCUA-CA
                serial:86:71:D7:EE:71:12:AB:EE

            X509v3 Subject Alternative Name: 
                URI:urn:NB5DSCR503191NB:NodeOPCUA-DiscoveryServer, DNS:localhost, DNS:NB5DSCR503191NB
            Netscape Comment: 
                OpenSSL Generated Certificate
            X509v3 Key Usage: critical
                Digital Signature, Non Repudiation, Key Encipherment, Data Encipherment, Key Agreement, Certificate Sign
            X509v3 Extended Key Usage: critical
                TLS Web Server Authentication, TLS Web Client Authentication
    Signature Algorithm: sha256WithRSAEncryption
         99:f9:d1:58:3e:58:79:10:cd:09:2c:2f:93:34:a6:08:d0:0a:
         bf:84:69:5e:70:1b:94:05:8d:d5:d9:f5:f3:64:79:21:57:11:
         2c:3c:28:3d:ae:80:93:a3:fc:55:f6:a1:29:05:e9:20:5f:e2:
         47:dc:f7:0a:01:ed:61:b0:0c:2e:e0:ec:03:68:66:6b:ac:1b:
         b6:5f:1c:a2:e4:90:3d:97:22:34:6b:e4:09:ce:33:95:54:d3:
         9e:c9:38:f1:65:5c:33:04:aa:1d:ed:5f:56:ad:6f:b4:1f:44:
         c2:50:12:2c:20:82:51:f9:f7:07:c0:fb:97:0f:cd:e4:1b:a9:
         82:97:7b:66:df:9d:9b:12:81:64:fb:a6:d2:56:85:2c:59:71:
         76:78:cf:9c:7a:26:f9:bf:55:da:8a:54:80:5d:94:d2:7e:60:
         98:cd:97:2b:36:8f:14:db:98:ab:03:8f:34:28:af:24:6b:3f:
         31:d1:30:b7:c1:1b:27:af:f7:fd:eb:da:0b:39:21:e7:54:40:
         65:6c:c7:e7:e7:a8:9c:e9:b5:87:e7:fa:17:d7:be:4f:3a:cf:
         9f:26:bd:ac:e7:e8:20:18:84:98:32:6a:b1:0c:6a:9a:32:54:
         46:31:25:2b:42:64:11:e5:ad:d7:a9:9f:e6:49:df:51:fd:d6:
         f1:43:5e:d9
-----BEGIN CERTIFICATE-----
MIIENTCCAx2gAwIBAgICEAgwDQYJKoZIhvcNAQELBQAwczELMAkGA1UEBhMCRlIx
DDAKBgNVBAgTA0lERjEOMAwGA1UEBxMFUGFyaXMxLzAtBgNVBAoTJkxvY2FsIE5P
REUtT1BDVUEgQ2VydGlmaWNhdGUgQXV0aG9yaXR5MRUwEwYDVQQDEwxOb2RlT1BD
VUEtQ0EwIhgPMjAxODA5MDMxMDQ0MzZaGA8yMDE5MDkwMzEwNDQzNlowNTELMAkG
A1UEBhMCRlIxEjAQBgNVBAoMCU5vZGVPUENVQTESMBAGA1UEAwwJTm9kZU9QQ1VB
MIGfMA0GCSqGSIb3DQEBAQUAA4GNADCBiQKBgQC9zbLH5kCU4qDyugDD2yOGhBWE
vSGIfGDz65MlpLibBFTRfkHEmnpq1EpNAT00xIYEXIGwMRzYU9KQMpnM8dkLMvJO
kSOR7D32ile4vsVaQiN/wQt4BwmEyhUz0TQ8YjHftoBWdg87pT+Dm3wr/CC+Szfp
0Jvuud6OQ+kuXp3t0QIDAQABo4IBjzCCAYswDAYDVR0TAQH/BAIwADAdBgNVHQ4E
FgQUZvRrkTVx/mQmCOYGfdLqfYOJl64wgaUGA1UdIwSBnTCBmoAU04FO2cZhF2xH
qA2DNvi6fiz4tquhd6R1MHMxCzAJBgNVBAYTAkZSMQwwCgYDVQQIEwNJREYxDjAM
BgNVBAcTBVBhcmlzMS8wLQYDVQQKEyZMb2NhbCBOT0RFLU9QQ1VBIENlcnRpZmlj
YXRlIEF1dGhvcml0eTEVMBMGA1UEAxMMTm9kZU9QQ1VBLUNBggkAhnHX7nESq+4w
VAYDVR0RBE0wS4YtdXJuOk5CNURTQ1I1MDMxOTFOQjpOb2RlT1BDVUEtRGlzY292
ZXJ5U2VydmVygglsb2NhbGhvc3SCD05CNURTQ1I1MDMxOTFOQjAsBglghkgBhvhC
AQ0EHxYdT3BlblNTTCBHZW5lcmF0ZWQgQ2VydGlmaWNhdGUwDgYDVR0PAQH/BAQD
AgL8MCAGA1UdJQEB/wQWMBQGCCsGAQUFBwMBBggrBgEFBQcDAjANBgkqhkiG9w0B
AQsFAAOCAQEAmfnRWD5YeRDNCSwvkzSmCNAKv4RpXnAblAWN1dn182R5IVcRLDwo
Pa6Ak6P8VfahKQXpIF/iR9z3CgHtYbAMLuDsA2hma6wbtl8couSQPZciNGvkCc4z
lVTTnsk48WVcMwSqHe1fVq1vtB9EwlASLCCCUfn3B8D7lw/N5Bupgpd7Zt+dmxKB
ZPum0laFLFlxdnjPnHom+b9V2opUgF2U0n5gmM2XKzaPFNuYqwOPNCivJGs/MdEw
t8EbJ6/3/evaCzkh51RAZWzH5+eonOm1h+f6F9e+TzrPnya9rOfoIBiEmDJqsQxq
mjJURjElK0JkEeWt16mf5knfUf3W8UNe2Q==
-----END CERTIFICATE-----
