Certificate:
    Data:
        Version: 3 (0x2)
        Serial Number: 4106 (0x100a)
    Signature Algorithm: sha256WithRSAEncryption
        Issuer: C=FR, ST=IDF, L=Paris, O=Local NODE-OPCUA Certificate Authority, CN=NodeOPCUA-CA
        Validity
            Not Before: Sep  3 10:44:36 2018 GMT
            Not After : Sep  3 10:44:36 2019 GMT
        Subject: C=FR, O=NodeOPCUA, CN=NodeOPCUA
        Subject Public Key Info:
            Public Key Algorithm: rsaEncryption
                Public-Key: (2048 bit)
                Modulus:
                    00:a6:34:f1:d2:df:b9:74:83:e8:66:dd:6f:52:f0:
                    5c:1a:6b:77:71:3b:1b:83:d0:5b:f2:2b:5a:a2:a9:
                    22:18:27:ab:7a:9f:b5:0d:5a:76:ef:b1:ee:4b:ba:
                    c7:b0:3e:28:0e:70:80:d2:1e:bb:66:04:66:54:76:
                    81:c6:c4:a0:fa:fe:71:54:76:91:82:f2:39:49:b7:
                    b7:70:1c:d3:74:4d:dc:f5:40:4a:94:88:6b:97:88:
                    a0:34:9d:25:d2:fd:5a:93:9d:48:84:26:28:c2:e7:
                    9e:ea:7c:25:6a:5d:2b:60:25:ad:69:b6:5e:ec:a0:
                    be:4b:c2:1e:02:82:9b:54:f4:4e:45:54:ae:7a:b1:
                    98:8c:12:f0:d1:5f:f6:23:4b:fa:cc:76:ce:1a:0c:
                    16:58:80:b3:bf:0d:f5:c2:79:73:28:c0:ff:8e:16:
                    0f:99:bc:16:1f:fa:c3:0f:d0:b4:95:25:94:fc:1c:
                    94:e8:14:cb:0c:ce:12:3e:9b:69:bc:66:9f:8a:4f:
                    0f:ca:14:ec:7c:30:4c:52:23:16:64:8a:97:27:4d:
                    dc:9d:39:1d:68:32:8b:74:31:a8:d6:ea:3d:c3:da:
                    33:54:84:68:bd:ba:96:ef:87:b0:43:58:ef:78:d9:
                    e6:7a:4c:a5:30:07:71:07:77:05:0a:18:8d:f2:a9:
                    b0:87
                Exponent: 65537 (0x10001)
        X509v3 extensions:
            X509v3 Basic Constraints: critical
                CA:FALSE
            X509v3 Subject Key Identifier: 
                EB:27:8A:58:68:5B:C1:67:A3:18:93:3E:E5:21:E5:F5:E3:DA:22:78
            X509v3 Authority Key Identifier: 
                keyid:D3:81:4E:D9:C6:61:17:6C:47:A8:0D:83:36:F8:BA:7E:2C:F8:B6:AB
                DirName:/C=FR/ST=IDF/L=Paris/O=Local NODE-OPCUA Certificate Authority/CN=NodeOPCUA-CA
                serial:86:71:D7:EE:71:12:AB:EE

            X509v3 Subject Alternative Name: 
                URI:urn:NB5DSCR503191NB:NodeOPCUA-DiscoveryServer, DNS:localhost, DNS:NB5DSCR503191NB
            Netscape Comment: 
                OpenSSL Generated Certificate
            X509v3 Key Usage: critical
                Digital Signature, Non Repudiation, Key Encipherment, Data Encipherment, Key Agreement, Certificate Sign
            X509v3 Extended Key Usage: critical
                TLS Web Server Authentication, TLS Web Client Authentication
    Signature Algorithm: sha256WithRSAEncryption
         3a:17:b7:41:f1:01:de:27:28:75:95:51:58:02:fa:e4:05:2f:
         5b:6c:1f:f4:18:6f:9e:41:09:97:88:ea:e1:5e:27:17:03:e3:
         35:61:01:ba:f3:5d:ea:10:01:74:b2:41:14:58:0b:a2:07:0e:
         08:8a:fe:30:b9:e4:78:43:57:4e:7b:fb:08:35:36:a5:a3:8c:
         e0:d6:20:d0:eb:9c:1b:72:9f:4e:18:e5:2b:56:cb:5f:12:3e:
         2a:39:9c:61:a3:79:62:05:79:96:d4:a5:14:1f:7d:6f:7e:7c:
         7c:8c:04:bf:57:2d:cb:91:b3:26:42:b3:1f:a0:f0:d0:e7:9d:
         09:a9:48:4e:3c:07:15:a6:25:1c:1a:da:01:18:91:d1:80:cc:
         29:d7:50:8f:45:36:40:98:28:df:14:cf:7d:db:c5:04:16:ce:
         19:44:57:8d:eb:bf:55:30:90:34:3b:8d:37:0d:ec:5c:75:8e:
         cc:b4:3f:ac:3b:3e:e9:d5:94:57:d5:a3:32:e8:c2:ea:e8:1f:
         d8:26:d9:ce:1f:0f:e3:ff:b6:8b:bb:bf:d4:c6:9a:4c:ef:4d:
         89:e1:8e:e0:aa:9c:9c:1d:7f:2f:81:60:5d:44:94:ca:4d:be:
         9e:29:de:5c:4b:e8:7a:6e:78:8a:5c:d9:11:c8:3f:05:4f:a8:
         6e:0c:32:17
-----BEGIN CERTIFICATE-----
MIIEuTCCA6GgAwIBAgICEAowDQYJKoZIhvcNAQELBQAwczELMAkGA1UEBhMCRlIx
DDAKBgNVBAgTA0lERjEOMAwGA1UEBxMFUGFyaXMxLzAtBgNVBAoTJkxvY2FsIE5P
REUtT1BDVUEgQ2VydGlmaWNhdGUgQXV0aG9yaXR5MRUwEwYDVQQDEwxOb2RlT1BD
VUEtQ0EwIhgPMjAxODA5MDMxMDQ0MzZaGA8yMDE5MDkwMzEwNDQzNlowNTELMAkG
A1UEBhMCRlIxEjAQBgNVBAoMCU5vZGVPUENVQTESMBAGA1UEAwwJTm9kZU9QQ1VB
MIIBIjANBgkqhkiG9w0BAQEFAAOCAQ8AMIIBCgKCAQEApjTx0t+5dIPoZt1vUvBc
Gmt3cTsbg9Bb8itaoqkiGCerep+1DVp277HuS7rHsD4oDnCA0h67ZgRmVHaBxsSg
+v5xVHaRgvI5Sbe3cBzTdE3c9UBKlIhrl4igNJ0l0v1ak51IhCYowuee6nwlal0r
YCWtabZe7KC+S8IeAoKbVPRORVSuerGYjBLw0V/2I0v6zHbOGgwWWICzvw31wnlz
KMD/jhYPmbwWH/rDD9C0lSWU/ByU6BTLDM4SPptpvGafik8PyhTsfDBMUiMWZIqX
J03cnTkdaDKLdDGo1uo9w9ozVIRovbqW74ewQ1jveNnmekylMAdxB3cFChiN8qmw
hwIDAQABo4IBjzCCAYswDAYDVR0TAQH/BAIwADAdBgNVHQ4EFgQU6yeKWGhbwWej
GJM+5SHl9ePaIngwgaUGA1UdIwSBnTCBmoAU04FO2cZhF2xHqA2DNvi6fiz4tquh
d6R1MHMxCzAJBgNVBAYTAkZSMQwwCgYDVQQIEwNJREYxDjAMBgNVBAcTBVBhcmlz
MS8wLQYDVQQKEyZMb2NhbCBOT0RFLU9QQ1VBIENlcnRpZmljYXRlIEF1dGhvcml0
eTEVMBMGA1UEAxMMTm9kZU9QQ1VBLUNBggkAhnHX7nESq+4wVAYDVR0RBE0wS4Yt
dXJuOk5CNURTQ1I1MDMxOTFOQjpOb2RlT1BDVUEtRGlzY292ZXJ5U2VydmVyggls
b2NhbGhvc3SCD05CNURTQ1I1MDMxOTFOQjAsBglghkgBhvhCAQ0EHxYdT3BlblNT
TCBHZW5lcmF0ZWQgQ2VydGlmaWNhdGUwDgYDVR0PAQH/BAQDAgL8MCAGA1UdJQEB
/wQWMBQGCCsGAQUFBwMBBggrBgEFBQcDAjANBgkqhkiG9w0BAQsFAAOCAQEAOhe3
QfEB3icodZVRWAL65AUvW2wf9BhvnkEJl4jq4V4nFwPjNWEBuvNd6hABdLJBFFgL
ogcOCIr+MLnkeENXTnv7CDU2paOM4NYg0OucG3KfThjlK1bLXxI+KjmcYaN5YgV5
ltSlFB99b358fIwEv1cty5GzJkKzH6Dw0OedCalITjwHFaYlHBraARiR0YDMKddQ
j0U2QJgo3xTPfdvFBBbOGURXjeu/VTCQNDuNNw3sXHWOzLQ/rDs+6dWUV9WjMujC
6ugf2CbZzh8P4/+2i7u/1MaaTO9NieGO4KqcnB1/L4FgXUSUyk2+nineXEvoem54
ilzZEcg/BU+obgwyFw==
-----END CERTIFICATE-----
