Certificate:
    Data:
        Version: 3 (0x2)
        Serial Number: 4107 (0x100b)
    Signature Algorithm: sha256WithRSAEncryption
        Issuer: O=NodeOPCUA, CN=NodeOPCUA
        Validity
            Not Before: Sep  3 10:44:36 2018 GMT
            Not After : Sep  3 10:44:36 2019 GMT
        Subject: O=NodeOPCUA, CN=NodeOPCUA
        Subject Public Key Info:
            Public Key Algorithm: rsaEncryption
                Public-Key: (2048 bit)
                Modulus:
                    00:a6:34:f1:d2:df:b9:74:83:e8:66:dd:6f:52:f0:
                    5c:1a:6b:77:71:3b:1b:83:d0:5b:f2:2b:5a:a2:a9:
                    22:18:27:ab:7a:9f:b5:0d:5a:76:ef:b1:ee:4b:ba:
                    c7:b0:3e:28:0e:70:80:d2:1e:bb:66:04:66:54:76:
                    81:c6:c4:a0:fa:fe:71:54:76:91:82:f2:39:49:b7:
                    b7:70:1c:d3:74:4d:dc:f5:40:4a:94:88:6b:97:88:
                    a0:34:9d:25:d2:fd:5a:93:9d:48:84:26:28:c2:e7:
                    9e:ea:7c:25:6a:5d:2b:60:25:ad:69:b6:5e:ec:a0:
                    be:4b:c2:1e:02:82:9b:54:f4:4e:45:54:ae:7a:b1:
                    98:8c:12:f0:d1:5f:f6:23:4b:fa:cc:76:ce:1a:0c:
                    16:58:80:b3:bf:0d:f5:c2:79:73:28:c0:ff:8e:16:
                    0f:99:bc:16:1f:fa:c3:0f:d0:b4:95:25:94:fc:1c:
                    94:e8:14:cb:0c:ce:12:3e:9b:69:bc:66:9f:8a:4f:
                    0f:ca:14:ec:7c:30:4c:52:23:16:64:8a:97:27:4d:
                    dc:9d:39:1d:68:32:8b:74:31:a8:d6:ea:3d:c3:da:
                    33:54:84:68:bd:ba:96:ef:87:b0:43:58:ef:78:d9:
                    e6:7a:4c:a5:30:07:71:07:77:05:0a:18:8d:f2:a9:
                    b0:87
                Exponent: 65537 (0x10001)
        X509v3 extensions:
            X509v3 Basic Constraints: critical
                CA:FALSE
            X509v3 Subject Key Identifier: 
                EB:27:8A:58:68:5B:C1:67:A3:18:93:3E:E5:21:E5:F5:E3:DA:22:78
            X509v3 Authority Key Identifier: 
                keyid:EB:27:8A:58:68:5B:C1:67:A3:18:93:3E:E5:21:E5:F5:E3:DA:22:78
                DirName:/O=NodeOPCUA/CN=NodeOPCUA
                serial:10:0B

            X509v3 Subject Alternative Name: 
                URI:urn:NB5DSCR503191NB:NodeOPCUA-DiscoveryServer, DNS:localhost, DNS:NB5DSCR503191NB
            Netscape Comment: 
                OpenSSL Generated Certificate
            X509v3 Key Usage: critical
                Digital Signature, Non Repudiation, Key Encipherment, Data Encipherment, Key Agreement, Certificate Sign
            X509v3 Extended Key Usage: critical
                TLS Web Server Authentication, TLS Web Client Authentication
    Signature Algorithm: sha256WithRSAEncryption
         8a:e1:f6:1b:a0:91:8d:1b:bd:c5:41:ef:61:06:af:b1:8f:0b:
         cc:f7:a9:eb:b3:45:22:73:73:fa:db:d4:67:72:ab:73:9b:9d:
         ab:c8:f5:6d:4e:fb:ab:2e:1b:bd:81:43:04:fc:37:e5:93:8a:
         4c:d8:27:b8:3f:17:c8:d2:e3:de:f5:c7:39:44:a6:2b:47:05:
         d5:92:2b:07:31:c5:80:59:fe:c8:b9:f1:20:be:3e:ae:ca:82:
         e7:f5:f3:9a:01:47:fa:bb:9a:fe:33:8c:44:2e:f4:a2:10:65:
         08:90:83:54:26:ac:20:74:67:3a:d1:a0:dc:f9:bd:d8:9a:fb:
         36:b2:d1:08:b7:4f:2b:14:51:28:03:9a:16:ed:f0:d6:ff:9c:
         73:ea:98:58:2f:b4:0d:fc:7d:a4:97:d9:04:3b:cc:a8:80:02:
         59:85:07:8c:97:e3:a0:34:6b:c4:db:e3:38:94:b2:e6:84:a3:
         f0:e4:d9:dc:85:06:b6:6e:a6:c7:98:6e:4a:11:dc:f2:75:b4:
         93:e5:05:2f:95:dd:d7:ef:7b:cf:de:96:e4:de:a4:0c:59:67:
         ba:99:66:98:af:e6:00:9d:86:a8:b8:c2:34:47:69:f4:73:4a:
         37:8b:ee:8b:b3:a4:4e:2f:e9:70:01:c8:4d:e3:86:bd:44:28:
         ff:45:ac:4c
-----BEGIN CERTIFICATE-----
MIIEDDCCAvSgAwIBAgICEAswDQYJKoZIhvcNAQELBQAwKDESMBAGA1UEChMJTm9k
ZU9QQ1VBMRIwEAYDVQQDEwlOb2RlT1BDVUEwIhgPMjAxODA5MDMxMDQ0MzZaGA8y
MDE5MDkwMzEwNDQzNlowKDESMBAGA1UEChMJTm9kZU9QQ1VBMRIwEAYDVQQDEwlO
b2RlT1BDVUEwggEiMA0GCSqGSIb3DQEBAQUAA4IBDwAwggEKAoIBAQCmNPHS37l0
g+hm3W9S8Fwaa3dxOxuD0FvyK1qiqSIYJ6t6n7UNWnbvse5LusewPigOcIDSHrtm
BGZUdoHGxKD6/nFUdpGC8jlJt7dwHNN0Tdz1QEqUiGuXiKA0nSXS/VqTnUiEJijC
557qfCVqXStgJa1ptl7soL5Lwh4CgptU9E5FVK56sZiMEvDRX/YjS/rMds4aDBZY
gLO/DfXCeXMowP+OFg+ZvBYf+sMP0LSVJZT8HJToFMsMzhI+m2m8Zp+KTw/KFOx8
MExSIxZkipcnTdydOR1oMot0MajW6j3D2jNUhGi9upbvh7BDWO942eZ6TKUwB3EH
dwUKGI3yqbCHAgMBAAGjggE6MIIBNjAMBgNVHRMBAf8EAjAAMB0GA1UdDgQWBBTr
J4pYaFvBZ6MYkz7lIeX149oieDBRBgNVHSMESjBIgBTrJ4pYaFvBZ6MYkz7lIeX1
49oieKEspCowKDESMBAGA1UEChMJTm9kZU9QQ1VBMRIwEAYDVQQDEwlOb2RlT1BD
VUGCAhALMFQGA1UdEQRNMEuGLXVybjpOQjVEU0NSNTAzMTkxTkI6Tm9kZU9QQ1VB
LURpc2NvdmVyeVNlcnZlcoIJbG9jYWxob3N0gg9OQjVEU0NSNTAzMTkxTkIwLAYJ
YIZIAYb4QgENBB8WHU9wZW5TU0wgR2VuZXJhdGVkIENlcnRpZmljYXRlMA4GA1Ud
DwEB/wQEAwIC/DAgBgNVHSUBAf8EFjAUBggrBgEFBQcDAQYIKwYBBQUHAwIwDQYJ
KoZIhvcNAQELBQADggEBAIrh9hugkY0bvcVB72EGr7GPC8z3qeuzRSJzc/rb1Gdy
q3ObnavI9W1O+6suG72BQwT8N+WTikzYJ7g/F8jS4971xzlEpitHBdWSKwcxxYBZ
/si58SC+Pq7Kguf185oBR/q7mv4zjEQu9KIQZQiQg1QmrCB0ZzrRoNz5vdia+zay
0Qi3TysUUSgDmhbt8Nb/nHPqmFgvtA38faSX2QQ7zKiAAlmFB4yX46A0a8Tb4ziU
suaEo/Dk2dyFBrZupseYbkoR3PJ1tJPlBS+V3dfve8/eluTepAxZZ7qZZpiv5gCd
hqi4wjRHafRzSjeL7ouzpE4v6XAByE3jhr1EKP9FrEw=
-----END CERTIFICATE-----
