Certificate:
    Data:
        Version: 3 (0x2)
        Serial Number: 4096 (0x1000)
    Signature Algorithm: sha256WithRSAEncryption
        Issuer: C=FR, ST=IDF, L=Paris, O=Local NODE-OPCUA Certificate Authority, CN=NodeOPCUA-CA
        Validity
            Not Before: Aug 28 11:14:05 2017 GMT
            Not After : Aug 28 11:14:05 2018 GMT
        Subject: C=FR, O=NodeOPCUA, CN=NodeOPCUA
        Subject Public Key Info:
            Public Key Algorithm: rsaEncryption
                Public-Key: (1024 bit)
                Modulus:
                    00:f7:a2:92:31:36:cf:44:70:e9:de:f3:49:49:5e:
                    cc:5f:08:22:82:78:f2:e4:91:5a:04:04:09:4f:2e:
                    0a:cf:88:c2:9f:bf:40:63:c5:7e:7f:0f:c4:fa:2c:
                    0c:81:83:4c:38:c9:03:34:94:9e:ba:4e:ad:56:8d:
                    d4:49:c0:20:93:21:14:45:2d:75:dd:20:9e:9d:5b:
                    1f:1a:d8:4c:a2:2a:a4:b6:f9:35:a4:93:4c:25:f9:
                    1a:9c:21:c5:71:27:ac:be:19:1b:56:5f:da:ea:b2:
                    6a:72:7d:b3:5b:e5:bd:52:01:36:26:5a:ae:c1:b1:
                    f0:08:22:51:46:ce:d4:1e:61
                Exponent: 65537 (0x10001)
        X509v3 extensions:
            X509v3 Basic Constraints: critical
                CA:FALSE
            X509v3 Subject Key Identifier: 
                52:7E:36:6D:60:66:4B:3B:39:74:00:87:BE:30:92:29:B3:97:73:31
            X509v3 Authority Key Identifier: 
                keyid:76:2A:71:9E:BC:6F:90:D6:D8:9A:DD:14:DE:DC:7B:D2:9C:55:C3:24
                DirName:/C=FR/ST=IDF/L=Paris/O=Local NODE-OPCUA Certificate Authority/CN=NodeOPCUA-CA
                serial:F9:A7:8A:6B:15:59:CE:15

            X509v3 Subject Alternative Name: 
                URI:urn:NB5DSCR503191NB:NodeOPCUA-Client, DNS:localhost, DNS:NB5DSCR503191NB
            Netscape Comment: 
                OpenSSL Generated Certificate
            X509v3 Key Usage: critical
                Digital Signature, Non Repudiation, Key Encipherment, Data Encipherment, Key Agreement, Certificate Sign
            X509v3 Extended Key Usage: critical
                TLS Web Server Authentication, TLS Web Client Authentication
    Signature Algorithm: sha256WithRSAEncryption
         89:48:31:95:a1:2d:f0:34:17:d5:44:a9:bc:43:ec:da:c3:9c:
         5c:d4:7b:d2:0a:10:ea:84:fd:9a:83:44:f5:d0:40:46:fd:2e:
         e3:3d:12:cd:37:e5:b4:b2:d8:8f:ab:b2:df:d5:a7:c5:e9:41:
         3c:09:d9:19:37:f1:a2:d6:77:68:44:ad:b4:97:b2:0a:cb:8d:
         25:a9:5b:60:0e:55:27:b0:01:11:65:e6:9c:a6:c1:c1:fd:89:
         be:94:66:70:68:b5:7f:0b:d8:4d:cb:86:59:f4:67:a1:e0:bb:
         09:be:61:3e:9d:fa:f1:9d:19:b4:62:4e:f6:d5:5e:fa:ae:7c:
         6b:4b:b4:6b:d7:46:75:28:85:a5:3f:c7:34:06:52:c5:09:3c:
         41:43:d9:1a:cc:e9:0f:8b:80:7f:ea:b3:50:a0:bd:1a:c1:99:
         88:ee:8f:f5:c1:6a:08:a6:12:59:0a:c2:37:c3:88:03:ab:5f:
         b8:fd:f2:f4:f2:a0:33:99:57:36:92:52:d3:b9:31:b8:be:e4:
         60:dc:4c:2e:6e:fe:7b:2c:c3:12:7a:d4:82:aa:99:69:c7:c8:
         16:0b:56:a1:6c:f1:55:b6:06:98:1e:f4:91:01:e5:8d:70:60:
         e7:de:13:3d:ef:64:f7:82:c2:0d:d8:5b:68:1d:e0:bd:2e:48:
         e8:7f:dd:dc
-----BEGIN CERTIFICATE-----
MIIELDCCAxSgAwIBAgICEAAwDQYJKoZIhvcNAQELBQAwczELMAkGA1UEBhMCRlIx
DDAKBgNVBAgTA0lERjEOMAwGA1UEBxMFUGFyaXMxLzAtBgNVBAoTJkxvY2FsIE5P
REUtT1BDVUEgQ2VydGlmaWNhdGUgQXV0aG9yaXR5MRUwEwYDVQQDEwxOb2RlT1BD
VUEtQ0EwIhgPMjAxNzA4MjgxMTE0MDVaGA8yMDE4MDgyODExMTQwNVowNTELMAkG
A1UEBhMCRlIxEjAQBgNVBAoMCU5vZGVPUENVQTESMBAGA1UEAwwJTm9kZU9QQ1VB
MIGfMA0GCSqGSIb3DQEBAQUAA4GNADCBiQKBgQD3opIxNs9EcOne80lJXsxfCCKC
ePLkkVoEBAlPLgrPiMKfv0BjxX5/D8T6LAyBg0w4yQM0lJ66Tq1WjdRJwCCTIRRF
LXXdIJ6dWx8a2EyiKqS2+TWkk0wl+RqcIcVxJ6y+GRtWX9rqsmpyfbNb5b1SATYm
Wq7BsfAIIlFGztQeYQIDAQABo4IBhjCCAYIwDAYDVR0TAQH/BAIwADAdBgNVHQ4E
FgQUUn42bWBmSzs5dACHvjCSKbOXczEwgaUGA1UdIwSBnTCBmoAUdipxnrxvkNbY
mt0U3tx70pxVwyShd6R1MHMxCzAJBgNVBAYTAkZSMQwwCgYDVQQIEwNJREYxDjAM
BgNVBAcTBVBhcmlzMS8wLQYDVQQKEyZMb2NhbCBOT0RFLU9QQ1VBIENlcnRpZmlj
YXRlIEF1dGhvcml0eTEVMBMGA1UEAxMMTm9kZU9QQ1VBLUNBggkA+aeKaxVZzhUw
SwYDVR0RBEQwQoYkdXJuOk5CNURTQ1I1MDMxOTFOQjpOb2RlT1BDVUEtQ2xpZW50
gglsb2NhbGhvc3SCD05CNURTQ1I1MDMxOTFOQjAsBglghkgBhvhCAQ0EHxYdT3Bl
blNTTCBHZW5lcmF0ZWQgQ2VydGlmaWNhdGUwDgYDVR0PAQH/BAQDAgL8MCAGA1Ud
JQEB/wQWMBQGCCsGAQUFBwMBBggrBgEFBQcDAjANBgkqhkiG9w0BAQsFAAOCAQEA
iUgxlaEt8DQX1USpvEPs2sOcXNR70goQ6oT9moNE9dBARv0u4z0SzTfltLLYj6uy
39WnxelBPAnZGTfxotZ3aESttJeyCsuNJalbYA5VJ7ABEWXmnKbBwf2JvpRmcGi1
fwvYTcuGWfRnoeC7Cb5hPp368Z0ZtGJO9tVe+q58a0u0a9dGdSiFpT/HNAZSxQk8
QUPZGszpD4uAf+qzUKC9GsGZiO6P9cFqCKYSWQrCN8OIA6tfuP3y9PKgM5lXNpJS
07kxuL7kYNxMLm7+eyzDEnrUgqqZacfIFgtWoWzxVbYGmB70kQHljXBg594TPe9k
94LCDdhbaB3gvS5I6H/d3A==
-----END CERTIFICATE-----
