Certificate:
    Data:
        Version: 3 (0x2)
        Serial Number: 4097 (0x1001)
    Signature Algorithm: sha256WithRSAEncryption
        Issuer: O=NodeOPCUA, CN=NodeOPCUA
        Validity
            Not Before: Sep  3 10:43:33 2018 GMT
            Not After : Sep  3 10:43:33 2019 GMT
        Subject: O=NodeOPCUA, CN=NodeOPCUA
        Subject Public Key Info:
            Public Key Algorithm: rsaEncryption
                Public-Key: (1024 bit)
                Modulus:
                    00:e9:67:d2:61:5a:11:da:55:c7:f6:60:0d:1a:6a:
                    b8:d5:90:17:b9:01:b1:a1:fa:7a:43:d6:23:3c:04:
                    5e:87:22:58:38:76:21:bf:e6:14:51:5a:22:e2:f8:
                    f9:ed:40:2f:07:86:44:95:5e:d5:f1:f1:7a:c7:3d:
                    1a:48:06:bb:04:17:3d:e0:e7:b1:18:9e:69:1a:8e:
                    b8:04:64:82:a9:48:ff:e9:24:1c:7e:6a:9c:05:71:
                    7f:69:70:b2:55:20:35:71:07:9e:93:4e:fe:a9:3f:
                    f8:95:68:01:78:95:80:51:c2:40:a4:23:1f:30:fd:
                    84:ee:1b:22:ac:b7:8b:57:21
                Exponent: 65537 (0x10001)
        X509v3 extensions:
            X509v3 Basic Constraints: critical
                CA:FALSE
            X509v3 Subject Key Identifier: 
                C1:5D:D0:FD:98:A4:92:84:81:56:1A:80:0E:AE:F3:FC:FC:03:52:BB
            X509v3 Authority Key Identifier: 
                keyid:C1:5D:D0:FD:98:A4:92:84:81:56:1A:80:0E:AE:F3:FC:FC:03:52:BB
                DirName:/O=NodeOPCUA/CN=NodeOPCUA
                serial:10:01

            X509v3 Subject Alternative Name: 
                URI:urn:NB5DSCR503191NB:NodeOPCUA-Client, DNS:localhost, DNS:NB5DSCR503191NB
            Netscape Comment: 
                OpenSSL Generated Certificate
            X509v3 Key Usage: critical
                Digital Signature, Non Repudiation, Key Encipherment, Data Encipherment, Key Agreement, Certificate Sign
            X509v3 Extended Key Usage: critical
                TLS Web Server Authentication, TLS Web Client Authentication
    Signature Algorithm: sha256WithRSAEncryption
         06:58:29:49:61:5b:80:65:5b:2e:de:08:92:d6:7a:55:8a:23:
         19:72:f3:67:3d:da:a4:1d:7c:33:1c:4f:94:b9:c8:e6:82:e6:
         19:3c:0e:79:77:77:8f:44:c9:32:d8:af:5f:7b:30:5f:a7:83:
         30:6a:6b:d7:94:22:74:57:34:48:10:fb:79:32:48:fe:1a:d9:
         44:91:e8:5c:71:e6:88:66:ec:53:21:c4:1c:a7:ff:42:a4:09:
         86:f0:e8:a5:f9:b7:09:cf:05:45:87:8e:10:4c:7f:7f:c4:bd:
         64:9b:5d:bc:1a:30:f4:87:37:a6:75:c9:c4:12:b8:a8:96:63:
         8f:08
-----BEGIN CERTIFICATE-----
MIIC/jCCAmegAwIBAgICEAEwDQYJKoZIhvcNAQELBQAwKDESMBAGA1UEChMJTm9k
ZU9QQ1VBMRIwEAYDVQQDEwlOb2RlT1BDVUEwIhgPMjAxODA5MDMxMDQzMzNaGA8y
MDE5MDkwMzEwNDMzM1owKDESMBAGA1UEChMJTm9kZU9QQ1VBMRIwEAYDVQQDEwlO
b2RlT1BDVUEwgZ8wDQYJKoZIhvcNAQEBBQADgY0AMIGJAoGBAOln0mFaEdpVx/Zg
DRpquNWQF7kBsaH6ekPWIzwEXociWDh2Ib/mFFFaIuL4+e1ALweGRJVe1fHxesc9
GkgGuwQXPeDnsRieaRqOuARkgqlI/+kkHH5qnAVxf2lwslUgNXEHnpNO/qk/+JVo
AXiVgFHCQKQjHzD9hO4bIqy3i1chAgMBAAGjggExMIIBLTAMBgNVHRMBAf8EAjAA
MB0GA1UdDgQWBBTBXdD9mKSShIFWGoAOrvP8/ANSuzBRBgNVHSMESjBIgBTBXdD9
mKSShIFWGoAOrvP8/ANSu6EspCowKDESMBAGA1UEChMJTm9kZU9QQ1VBMRIwEAYD
VQQDEwlOb2RlT1BDVUGCAhABMEsGA1UdEQREMEKGJHVybjpOQjVEU0NSNTAzMTkx
TkI6Tm9kZU9QQ1VBLUNsaWVudIIJbG9jYWxob3N0gg9OQjVEU0NSNTAzMTkxTkIw
LAYJYIZIAYb4QgENBB8WHU9wZW5TU0wgR2VuZXJhdGVkIENlcnRpZmljYXRlMA4G
A1UdDwEB/wQEAwIC/DAgBgNVHSUBAf8EFjAUBggrBgEFBQcDAQYIKwYBBQUHAwIw
DQYJKoZIhvcNAQELBQADgYEABlgpSWFbgGVbLt4IktZ6VYojGXLzZz3apB18MxxP
lLnI5oLmGTwOeXd3j0TJMtivX3swX6eDMGpr15QidFc0SBD7eTJI/hrZRJHoXHHm
iGbsUyHEHKf/QqQJhvDopfm3Cc8FRYeOEEx/f8S9ZJtdvBow9Ic3pnXJxBK4qJZj
jwg=
-----END CERTIFICATE-----
