Certificate:
    Data:
        Version: 3 (0x2)
        Serial Number: 4099 (0x1003)
    Signature Algorithm: sha256WithRSAEncryption
        Issuer: O=NodeOPCUA, CN=NodeOPCUA
        Validity
            Not Before: Sep  3 10:43:33 2018 GMT
            Not After : Sep  3 10:43:33 2019 GMT
        Subject: O=NodeOPCUA, CN=NodeOPCUA
        Subject Public Key Info:
            Public Key Algorithm: rsaEncryption
                Public-Key: (2048 bit)
                Modulus:
                    00:dd:55:05:d2:e9:f1:46:c4:36:e1:46:23:87:6c:
                    bc:78:1d:7f:b2:c7:cc:2e:43:c5:96:78:0e:b7:dd:
                    ae:b0:12:00:37:ad:73:ce:61:df:45:ad:ba:b9:49:
                    70:72:a0:c1:c4:70:98:c5:3a:9f:ce:f1:08:91:38:
                    a0:6e:5b:17:78:b6:75:38:02:7f:84:ae:b9:69:9f:
                    19:2d:a1:50:7d:d1:79:0d:2f:72:94:40:e1:cb:72:
                    4c:3e:71:33:8a:b9:fa:56:85:57:5a:cb:09:85:52:
                    ed:54:a5:0a:4c:09:ca:ec:d1:ef:aa:2a:82:38:ca:
                    78:62:85:60:c9:82:82:4c:6b:f9:b1:3d:c2:02:98:
                    44:9e:5b:9d:f0:d5:9e:64:34:4c:ab:c5:38:fb:96:
                    33:70:f2:bb:ba:df:8c:d8:2a:7d:2c:94:70:c9:fc:
                    18:d6:17:7c:2d:41:1b:28:5c:70:6f:03:78:ff:1d:
                    24:d4:06:f8:4f:b5:bd:e8:ee:2a:ed:50:2a:a4:05:
                    14:58:68:ea:09:28:e4:aa:06:9f:d4:69:5a:00:31:
                    83:a4:f2:09:f9:de:dd:d2:9f:86:8e:61:f1:fe:b6:
                    7d:3a:cf:ce:3a:fb:fb:ef:02:b5:94:42:f2:13:a7:
                    36:be:20:63:65:a8:de:e2:1b:dc:fa:27:c5:04:c4:
                    b7:07
                Exponent: 65537 (0x10001)
        X509v3 extensions:
            X509v3 Basic Constraints: critical
                CA:FALSE
            X509v3 Subject Key Identifier: 
                28:99:21:34:48:68:41:25:5A:CC:B7:56:BA:45:06:1D:BA:CF:80:31
            X509v3 Authority Key Identifier: 
                keyid:28:99:21:34:48:68:41:25:5A:CC:B7:56:BA:45:06:1D:BA:CF:80:31
                DirName:/O=NodeOPCUA/CN=NodeOPCUA
                serial:10:03

            X509v3 Subject Alternative Name: 
                URI:urn:NB5DSCR503191NB:NodeOPCUA-Client, DNS:localhost, DNS:NB5DSCR503191NB
            Netscape Comment: 
                OpenSSL Generated Certificate
            X509v3 Key Usage: critical
                Digital Signature, Non Repudiation, Key Encipherment, Data Encipherment, Key Agreement, Certificate Sign
            X509v3 Extended Key Usage: critical
                TLS Web Server Authentication, TLS Web Client Authentication
    Signature Algorithm: sha256WithRSAEncryption
         8c:46:4f:95:b3:b4:b9:ce:7d:1c:38:81:c7:cf:f3:5e:e6:8c:
         76:1e:fd:4d:36:6b:59:62:54:43:b8:a9:6b:55:f8:c9:8d:94:
         7d:b9:52:df:5f:f2:d5:6c:7c:94:0e:ae:c6:cc:52:d5:1b:15:
         8e:e3:a8:25:0b:fe:ba:23:2d:7c:b7:ca:d3:72:74:0e:62:42:
         76:61:be:9c:00:b8:4b:09:f9:8c:04:78:95:3f:85:b3:1e:85:
         3f:28:5c:86:05:5e:c7:be:2d:3f:41:1f:3a:b3:66:d2:c6:3d:
         a8:2d:7f:50:97:7c:f7:a3:62:6b:e7:75:d2:5b:db:b0:17:c7:
         c0:f9:14:98:a0:71:35:80:88:e9:66:9b:b8:29:4a:73:20:86:
         c9:ae:06:1e:ec:1d:b0:5b:79:c2:88:c9:25:c2:c9:22:e0:92:
         a7:ac:57:4d:fa:71:0a:57:a3:33:84:15:6a:55:fe:75:12:41:
         2f:b6:c6:5c:15:59:b1:7f:8f:7f:bd:55:3c:b2:89:f1:51:dd:
         67:cb:ea:84:0e:7f:92:22:7c:8f:08:36:41:f7:f6:73:5c:0c:
         3f:25:d3:7e:3f:df:71:a0:23:2c:84:c3:d6:e7:e5:97:1b:b5:
         d6:ec:af:db:db:84:99:37:c1:de:d7:51:44:fc:3f:9f:8d:ee:
         81:46:54:cf
-----BEGIN CERTIFICATE-----
MIIEAzCCAuugAwIBAgICEAMwDQYJKoZIhvcNAQELBQAwKDESMBAGA1UEChMJTm9k
ZU9QQ1VBMRIwEAYDVQQDEwlOb2RlT1BDVUEwIhgPMjAxODA5MDMxMDQzMzNaGA8y
MDE5MDkwMzEwNDMzM1owKDESMBAGA1UEChMJTm9kZU9QQ1VBMRIwEAYDVQQDEwlO
b2RlT1BDVUEwggEiMA0GCSqGSIb3DQEBAQUAA4IBDwAwggEKAoIBAQDdVQXS6fFG
xDbhRiOHbLx4HX+yx8wuQ8WWeA633a6wEgA3rXPOYd9Frbq5SXByoMHEcJjFOp/O
8QiROKBuWxd4tnU4An+ErrlpnxktoVB90XkNL3KUQOHLckw+cTOKufpWhVdaywmF
Uu1UpQpMCcrs0e+qKoI4ynhihWDJgoJMa/mxPcICmESeW53w1Z5kNEyrxTj7ljNw
8ru634zYKn0slHDJ/BjWF3wtQRsoXHBvA3j/HSTUBvhPtb3o7irtUCqkBRRYaOoJ
KOSqBp/UaVoAMYOk8gn53t3Sn4aOYfH+tn06z846+/vvArWUQvITpza+IGNlqN7i
G9z6J8UExLcHAgMBAAGjggExMIIBLTAMBgNVHRMBAf8EAjAAMB0GA1UdDgQWBBQo
mSE0SGhBJVrMt1a6RQYdus+AMTBRBgNVHSMESjBIgBQomSE0SGhBJVrMt1a6RQYd
us+AMaEspCowKDESMBAGA1UEChMJTm9kZU9QQ1VBMRIwEAYDVQQDEwlOb2RlT1BD
VUGCAhADMEsGA1UdEQREMEKGJHVybjpOQjVEU0NSNTAzMTkxTkI6Tm9kZU9QQ1VB
LUNsaWVudIIJbG9jYWxob3N0gg9OQjVEU0NSNTAzMTkxTkIwLAYJYIZIAYb4QgEN
BB8WHU9wZW5TU0wgR2VuZXJhdGVkIENlcnRpZmljYXRlMA4GA1UdDwEB/wQEAwIC
/DAgBgNVHSUBAf8EFjAUBggrBgEFBQcDAQYIKwYBBQUHAwIwDQYJKoZIhvcNAQEL
BQADggEBAIxGT5WztLnOfRw4gcfP817mjHYe/U02a1liVEO4qWtV+MmNlH25Ut9f
8tVsfJQOrsbMUtUbFY7jqCUL/rojLXy3ytNydA5iQnZhvpwAuEsJ+YwEeJU/hbMe
hT8oXIYFXse+LT9BHzqzZtLGPagtf1CXfPejYmvnddJb27AXx8D5FJigcTWAiOlm
m7gpSnMghsmuBh7sHbBbecKIySXCySLgkqesV036cQpXozOEFWpV/nUSQS+2xlwV
WbF/j3+9VTyyifFR3WfL6oQOf5IifI8INkH39nNcDD8l034/33GgIyyEw9bn5Zcb
tdbsr9vbhJk3wd7XUUT8P5+N7oFGVM8=
-----END CERTIFICATE-----
