Certificate:
    Data:
        Version: 3 (0x2)
        Serial Number: 4100 (0x1004)
    Signature Algorithm: sha256WithRSAEncryption
        Issuer: C=FR, ST=IDF, L=Paris, O=Local NODE-OPCUA Certificate Authority, CN=NodeOPCUA-CA
        Validity
            Not Before: Sep  3 10:43:33 2018 GMT
            Not After : Sep  3 10:43:33 2019 GMT
        Subject: C=FR, O=NodeOPCUA, CN=NodeOPCUA
        Subject Public Key Info:
            Public Key Algorithm: rsaEncryption
                Public-Key: (1024 bit)
                Modulus:
                    00:e8:b9:79:f9:32:42:47:bf:20:16:27:69:70:49:
                    d6:28:fb:e7:2a:73:d8:bd:e1:d4:33:10:ab:ca:29:
                    c6:c8:4d:87:f1:72:6e:a8:43:0f:97:06:b5:eb:89:
                    9e:c4:86:65:db:f5:a5:69:c9:c6:8a:e3:84:95:e4:
                    35:1c:6f:0c:f4:cb:96:b6:f3:53:77:d0:d9:8e:5e:
                    52:cb:d7:a3:4d:5d:ab:74:ef:b4:f4:a9:10:e6:b0:
                    f0:48:73:1a:70:30:40:63:aa:ac:3c:94:7e:11:9e:
                    65:03:2d:23:2e:c0:8a:c4:dc:bd:d8:31:c1:7b:82:
                    03:e5:cc:65:1d:66:47:6b:23
                Exponent: 65537 (0x10001)
        X509v3 extensions:
            X509v3 Basic Constraints: critical
                CA:FALSE
            X509v3 Subject Key Identifier: 
                35:E2:D9:02:E6:17:2D:80:EE:8A:67:7B:97:AB:E2:3C:1A:A0:8B:BA
            X509v3 Authority Key Identifier: 
                keyid:86:4E:30:D2:2D:4E:5C:90:F0:21:CA:04:E0:3D:85:44:1D:07:2A:15
                DirName:/C=FR/ST=IDF/L=Paris/O=Local NODE-OPCUA Certificate Authority/CN=NodeOPCUA-CA
                serial:D3:4D:17:85:65:28:E7:25

            X509v3 Subject Alternative Name: 
                URI:urn:NB5DSCR503191NB:NodeOPCUA-Server, DNS:localhost, DNS:NB5DSCR503191NB
            Netscape Comment: 
                OpenSSL Generated Certificate
            X509v3 Key Usage: critical
                Digital Signature, Non Repudiation, Key Encipherment, Data Encipherment, Key Agreement, Certificate Sign
            X509v3 Extended Key Usage: critical
                TLS Web Server Authentication, TLS Web Client Authentication
    Signature Algorithm: sha256WithRSAEncryption
         67:5a:dd:a9:9d:2f:3a:1d:23:9f:17:7e:3d:a9:c7:75:70:84:
         c3:1e:b7:e7:1f:4c:32:83:86:82:f4:fe:15:bd:5f:59:2c:8b:
         27:e7:38:ae:cd:e4:79:da:9e:08:f9:54:d2:ff:45:4a:5c:65:
         fc:30:b2:36:5a:b7:96:1b:46:a6:ee:35:90:52:6f:40:01:b6:
         33:17:76:b7:43:a3:76:85:d5:f4:12:11:b7:77:d6:12:bb:32:
         ca:d1:86:d8:da:90:aa:32:ac:15:25:2f:9d:d8:bf:58:9f:12:
         ed:35:a4:34:0e:08:46:3e:71:74:78:68:41:b9:82:b5:bb:a7:
         88:41:10:18:05:4a:ec:66:f3:c4:77:fc:99:4a:84:7c:e3:bf:
         c5:6c:c0:fc:b4:f5:d7:f8:e9:ae:a0:e3:89:32:36:be:c4:74:
         ac:78:53:f7:bc:ef:2e:01:9e:6e:73:7b:4d:71:5b:82:be:cd:
         59:c4:33:ce:45:61:b4:a6:0b:d6:23:f1:09:a5:41:e0:45:9d:
         38:39:20:65:3e:83:26:b9:f3:bc:80:e9:79:ab:0b:66:1c:7b:
         d4:49:f3:c8:78:db:77:43:2b:6c:a9:c9:2e:69:ad:69:0f:de:
         fb:ae:78:7b:4a:fc:7d:7f:5f:c2:0c:b9:f8:9c:a7:14:05:7c:
         16:b5:3d:78
-----BEGIN CERTIFICATE-----
MIIELDCCAxSgAwIBAgICEAQwDQYJKoZIhvcNAQELBQAwczELMAkGA1UEBhMCRlIx
DDAKBgNVBAgTA0lERjEOMAwGA1UEBxMFUGFyaXMxLzAtBgNVBAoTJkxvY2FsIE5P
REUtT1BDVUEgQ2VydGlmaWNhdGUgQXV0aG9yaXR5MRUwEwYDVQQDEwxOb2RlT1BD
VUEtQ0EwIhgPMjAxODA5MDMxMDQzMzNaGA8yMDE5MDkwMzEwNDMzM1owNTELMAkG
A1UEBhMCRlIxEjAQBgNVBAoMCU5vZGVPUENVQTESMBAGA1UEAwwJTm9kZU9QQ1VB
MIGfMA0GCSqGSIb3DQEBAQUAA4GNADCBiQKBgQDouXn5MkJHvyAWJ2lwSdYo++cq
c9i94dQzEKvKKcbITYfxcm6oQw+XBrXriZ7EhmXb9aVpycaK44SV5DUcbwz0y5a2
81N30NmOXlLL16NNXat077T0qRDmsPBIcxpwMEBjqqw8lH4RnmUDLSMuwIrE3L3Y
McF7ggPlzGUdZkdrIwIDAQABo4IBhjCCAYIwDAYDVR0TAQH/BAIwADAdBgNVHQ4E
FgQUNeLZAuYXLYDuimd7l6viPBqgi7owgaUGA1UdIwSBnTCBmoAUhk4w0i1OXJDw
IcoE4D2FRB0HKhWhd6R1MHMxCzAJBgNVBAYTAkZSMQwwCgYDVQQIEwNJREYxDjAM
BgNVBAcTBVBhcmlzMS8wLQYDVQQKEyZMb2NhbCBOT0RFLU9QQ1VBIENlcnRpZmlj
YXRlIEF1dGhvcml0eTEVMBMGA1UEAxMMTm9kZU9QQ1VBLUNBggkA000XhWUo5yUw
SwYDVR0RBEQwQoYkdXJuOk5CNURTQ1I1MDMxOTFOQjpOb2RlT1BDVUEtU2VydmVy
gglsb2NhbGhvc3SCD05CNURTQ1I1MDMxOTFOQjAsBglghkgBhvhCAQ0EHxYdT3Bl
blNTTCBHZW5lcmF0ZWQgQ2VydGlmaWNhdGUwDgYDVR0PAQH/BAQDAgL8MCAGA1Ud
JQEB/wQWMBQGCCsGAQUFBwMBBggrBgEFBQcDAjANBgkqhkiG9w0BAQsFAAOCAQEA
Z1rdqZ0vOh0jnxd+PanHdXCEwx635x9MMoOGgvT+Fb1fWSyLJ+c4rs3kedqeCPlU
0v9FSlxl/DCyNlq3lhtGpu41kFJvQAG2Mxd2t0OjdoXV9BIRt3fWErsyytGG2NqQ
qjKsFSUvndi/WJ8S7TWkNA4IRj5xdHhoQbmCtbuniEEQGAVK7GbzxHf8mUqEfOO/
xWzA/LT11/jprqDjiTI2vsR0rHhT97zvLgGebnN7TXFbgr7NWcQzzkVhtKYL1iPx
CaVB4EWdODkgZT6DJrnzvIDpeasLZhx71EnzyHjbd0MrbKnJLmmtaQ/e+654e0r8
fX9fwgy5+JynFAV8FrU9eA==
-----END CERTIFICATE-----
