Certificate:
    Data:
        Version: 3 (0x2)
        Serial Number: 4101 (0x1005)
    Signature Algorithm: sha256WithRSAEncryption
        Issuer: O=NodeOPCUA, CN=NodeOPCUA
        Validity
            Not Before: Sep  3 10:43:33 2018 GMT
            Not After : Sep  3 10:43:33 2019 GMT
        Subject: O=NodeOPCUA, CN=NodeOPCUA
        Subject Public Key Info:
            Public Key Algorithm: rsaEncryption
                Public-Key: (1024 bit)
                Modulus:
                    00:e8:b9:79:f9:32:42:47:bf:20:16:27:69:70:49:
                    d6:28:fb:e7:2a:73:d8:bd:e1:d4:33:10:ab:ca:29:
                    c6:c8:4d:87:f1:72:6e:a8:43:0f:97:06:b5:eb:89:
                    9e:c4:86:65:db:f5:a5:69:c9:c6:8a:e3:84:95:e4:
                    35:1c:6f:0c:f4:cb:96:b6:f3:53:77:d0:d9:8e:5e:
                    52:cb:d7:a3:4d:5d:ab:74:ef:b4:f4:a9:10:e6:b0:
                    f0:48:73:1a:70:30:40:63:aa:ac:3c:94:7e:11:9e:
                    65:03:2d:23:2e:c0:8a:c4:dc:bd:d8:31:c1:7b:82:
                    03:e5:cc:65:1d:66:47:6b:23
                Exponent: 65537 (0x10001)
        X509v3 extensions:
            X509v3 Basic Constraints: critical
                CA:FALSE
            X509v3 Subject Key Identifier: 
                35:E2:D9:02:E6:17:2D:80:EE:8A:67:7B:97:AB:E2:3C:1A:A0:8B:BA
            X509v3 Authority Key Identifier: 
                keyid:35:E2:D9:02:E6:17:2D:80:EE:8A:67:7B:97:AB:E2:3C:1A:A0:8B:BA
                DirName:/O=NodeOPCUA/CN=NodeOPCUA
                serial:10:05

            X509v3 Subject Alternative Name: 
                URI:urn:NB5DSCR503191NB:NodeOPCUA-Server, DNS:localhost, DNS:NB5DSCR503191NB
            Netscape Comment: 
                OpenSSL Generated Certificate
            X509v3 Key Usage: critical
                Digital Signature, Non Repudiation, Key Encipherment, Data Encipherment, Key Agreement, Certificate Sign
            X509v3 Extended Key Usage: critical
                TLS Web Server Authentication, TLS Web Client Authentication
    Signature Algorithm: sha256WithRSAEncryption
         e6:7c:72:d0:ad:70:78:b8:49:ad:65:b9:45:c7:bc:e6:c0:71:
         6c:7a:78:2f:7e:e4:99:1b:c4:57:14:a7:d8:4c:42:9d:64:2e:
         e2:40:59:c9:a4:48:15:6f:44:b7:bd:92:eb:a8:e9:b8:a4:f1:
         73:aa:ea:a3:f0:e2:ab:44:71:a5:e5:a3:23:46:c6:f6:b6:59:
         c7:36:8c:55:7a:81:78:8f:d9:c2:d9:29:18:81:31:ed:b1:67:
         eb:d9:c2:b7:01:43:d0:6a:bf:2e:8b:7d:3a:3d:1c:e8:f5:4d:
         57:a4:4f:58:3c:79:c5:71:54:ff:19:57:08:c8:c1:f7:30:70:
         b5:d3
-----BEGIN CERTIFICATE-----
MIIC/jCCAmegAwIBAgICEAUwDQYJKoZIhvcNAQELBQAwKDESMBAGA1UEChMJTm9k
ZU9QQ1VBMRIwEAYDVQQDEwlOb2RlT1BDVUEwIhgPMjAxODA5MDMxMDQzMzNaGA8y
MDE5MDkwMzEwNDMzM1owKDESMBAGA1UEChMJTm9kZU9QQ1VBMRIwEAYDVQQDEwlO
b2RlT1BDVUEwgZ8wDQYJKoZIhvcNAQEBBQADgY0AMIGJAoGBAOi5efkyQke/IBYn
aXBJ1ij75ypz2L3h1DMQq8opxshNh/FybqhDD5cGteuJnsSGZdv1pWnJxorjhJXk
NRxvDPTLlrbzU3fQ2Y5eUsvXo01dq3TvtPSpEOaw8EhzGnAwQGOqrDyUfhGeZQMt
Iy7AisTcvdgxwXuCA+XMZR1mR2sjAgMBAAGjggExMIIBLTAMBgNVHRMBAf8EAjAA
MB0GA1UdDgQWBBQ14tkC5hctgO6KZ3uXq+I8GqCLujBRBgNVHSMESjBIgBQ14tkC
5hctgO6KZ3uXq+I8GqCLuqEspCowKDESMBAGA1UEChMJTm9kZU9QQ1VBMRIwEAYD
VQQDEwlOb2RlT1BDVUGCAhAFMEsGA1UdEQREMEKGJHVybjpOQjVEU0NSNTAzMTkx
TkI6Tm9kZU9QQ1VBLVNlcnZlcoIJbG9jYWxob3N0gg9OQjVEU0NSNTAzMTkxTkIw
LAYJYIZIAYb4QgENBB8WHU9wZW5TU0wgR2VuZXJhdGVkIENlcnRpZmljYXRlMA4G
A1UdDwEB/wQEAwIC/DAgBgNVHSUBAf8EFjAUBggrBgEFBQcDAQYIKwYBBQUHAwIw
DQYJKoZIhvcNAQELBQADgYEA5nxy0K1weLhJrWW5Rce85sBxbHp4L37kmRvEVxSn
2ExCnWQu4kBZyaRIFW9Et72S66jpuKTxc6rqo/Diq0RxpeWjI0bG9rZZxzaMVXqB
eI/ZwtkpGIEx7bFn69nCtwFD0Gq/Lot9Oj0c6PVNV6RPWDx5xXFU/xlXCMjB9zBw
tdM=
-----END CERTIFICATE-----
