Certificate:
    Data:
        Version: 3 (0x2)
        Serial Number: 4103 (0x1007)
    Signature Algorithm: sha256WithRSAEncryption
        Issuer: O=NodeOPCUA, CN=NodeOPCUA
        Validity
            Not Before: Aug 28 11:14:05 2017 GMT
            Not After : Aug 28 11:14:05 2018 GMT
        Subject: O=NodeOPCUA, CN=NodeOPCUA
        Subject Public Key Info:
            Public Key Algorithm: rsaEncryption
                Public-Key: (2048 bit)
                Modulus:
                    00:b6:5d:60:6b:c1:db:aa:b6:69:c2:f8:91:50:05:
                    6c:1e:67:fd:96:06:c7:f6:6b:ed:bd:fc:c0:c8:02:
                    d5:1b:84:f4:55:a7:3d:50:9c:34:1a:89:dd:da:3a:
                    de:a9:75:69:f9:72:1d:7d:16:3b:f5:45:73:22:f7:
                    36:74:1b:cb:dc:c7:9e:7e:4c:72:a8:ec:4e:84:67:
                    33:7e:4c:63:a7:fc:76:7b:99:fe:10:fa:02:b1:eb:
                    61:a9:c0:4f:97:91:c1:26:29:25:92:7b:9b:56:4b:
                    15:15:2a:4f:fe:17:72:96:4d:4f:89:fe:0e:98:ac:
                    ba:35:3f:d5:42:da:e8:f9:43:b0:15:1a:dd:ff:79:
                    70:96:62:12:a0:d0:cd:64:f4:d8:61:2b:d7:2a:46:
                    f4:b4:d6:b2:c4:b1:e1:ab:ac:10:a6:2c:cf:c6:df:
                    dd:00:a0:0d:04:21:69:06:80:ad:43:c7:28:91:f5:
                    4e:c0:6a:39:13:84:f5:e7:9c:57:57:f1:11:af:15:
                    dc:5a:44:36:08:e8:df:3b:f8:7e:14:18:a7:94:20:
                    e2:07:bc:e8:b3:45:8d:2d:d7:99:99:a8:e4:59:43:
                    c1:81:7a:91:2f:bc:16:4c:0b:58:07:63:0a:ed:85:
                    43:cb:d1:b2:57:c2:ff:2e:11:78:10:c9:78:89:94:
                    d4:41
                Exponent: 65537 (0x10001)
        X509v3 extensions:
            X509v3 Basic Constraints: critical
                CA:FALSE
            X509v3 Subject Key Identifier: 
                93:2E:94:9B:DF:8C:4F:DB:B4:17:49:27:3D:90:93:87:0B:B8:1D:53
            X509v3 Authority Key Identifier: 
                keyid:93:2E:94:9B:DF:8C:4F:DB:B4:17:49:27:3D:90:93:87:0B:B8:1D:53
                DirName:/O=NodeOPCUA/CN=NodeOPCUA
                serial:10:07

            X509v3 Subject Alternative Name: 
                URI:urn:NB5DSCR503191NB:NodeOPCUA-Server, DNS:localhost, DNS:NB5DSCR503191NB
            Netscape Comment: 
                OpenSSL Generated Certificate
            X509v3 Key Usage: critical
                Digital Signature, Non Repudiation, Key Encipherment, Data Encipherment, Key Agreement, Certificate Sign
            X509v3 Extended Key Usage: critical
                TLS Web Server Authentication, TLS Web Client Authentication
    Signature Algorithm: sha256WithRSAEncryption
         64:a1:bd:34:cb:d9:fc:1a:00:27:01:73:35:88:0e:d8:f5:de:
         38:d6:66:8b:89:b9:17:c6:9b:4b:5d:15:b5:b1:88:32:5a:3b:
         44:b0:0b:88:a6:50:cb:9b:8d:47:01:7c:5f:15:4d:f1:a3:d9:
         31:99:77:47:0d:93:6f:d8:c5:fc:02:0d:fa:8d:2d:3d:4b:b2:
         3c:56:cf:2a:92:27:a2:89:f8:8b:7d:46:46:ab:6b:ef:3a:82:
         05:17:14:e1:db:38:91:aa:81:c6:7c:ce:3a:4f:09:cb:45:f5:
         db:ce:bc:1c:d8:be:19:6e:34:12:13:67:77:11:d4:d7:35:06:
         e0:6b:8c:a4:1f:af:72:1e:f4:4c:b7:b3:c6:0d:63:87:86:15:
         d4:13:a3:51:eb:82:80:58:83:01:1c:37:a9:af:f7:08:7d:58:
         d0:04:d8:6a:3a:5a:89:82:db:9b:62:04:ec:52:ed:ba:8d:78:
         43:f8:a6:51:5c:88:81:d9:1d:42:11:5a:22:08:2f:3c:ca:73:
         85:0e:cd:bd:30:18:98:5b:7b:88:17:96:de:9b:7b:dd:c3:52:
         f8:11:e4:03:48:e2:55:f1:16:f0:51:81:1d:54:b7:f3:ab:91:
         a0:95:6b:23:bd:45:22:a8:0d:3c:7e:c3:fe:37:4c:51:06:18:
         f2:7d:59:13
-----BEGIN CERTIFICATE-----
MIIEAzCCAuugAwIBAgICEAcwDQYJKoZIhvcNAQELBQAwKDESMBAGA1UEChMJTm9k
ZU9QQ1VBMRIwEAYDVQQDEwlOb2RlT1BDVUEwIhgPMjAxNzA4MjgxMTE0MDVaGA8y
MDE4MDgyODExMTQwNVowKDESMBAGA1UEChMJTm9kZU9QQ1VBMRIwEAYDVQQDEwlO
b2RlT1BDVUEwggEiMA0GCSqGSIb3DQEBAQUAA4IBDwAwggEKAoIBAQC2XWBrwduq
tmnC+JFQBWweZ/2WBsf2a+29/MDIAtUbhPRVpz1QnDQaid3aOt6pdWn5ch19Fjv1
RXMi9zZ0G8vcx55+THKo7E6EZzN+TGOn/HZ7mf4Q+gKx62GpwE+XkcEmKSWSe5tW
SxUVKk/+F3KWTU+J/g6YrLo1P9VC2uj5Q7AVGt3/eXCWYhKg0M1k9NhhK9cqRvS0
1rLEseGrrBCmLM/G390AoA0EIWkGgK1DxyiR9U7AajkThPXnnFdX8RGvFdxaRDYI
6N87+H4UGKeUIOIHvOizRY0t15mZqORZQ8GBepEvvBZMC1gHYwrthUPL0bJXwv8u
EXgQyXiJlNRBAgMBAAGjggExMIIBLTAMBgNVHRMBAf8EAjAAMB0GA1UdDgQWBBST
LpSb34xP27QXSSc9kJOHC7gdUzBRBgNVHSMESjBIgBSTLpSb34xP27QXSSc9kJOH
C7gdU6EspCowKDESMBAGA1UEChMJTm9kZU9QQ1VBMRIwEAYDVQQDEwlOb2RlT1BD
VUGCAhAHMEsGA1UdEQREMEKGJHVybjpOQjVEU0NSNTAzMTkxTkI6Tm9kZU9QQ1VB
LVNlcnZlcoIJbG9jYWxob3N0gg9OQjVEU0NSNTAzMTkxTkIwLAYJYIZIAYb4QgEN
BB8WHU9wZW5TU0wgR2VuZXJhdGVkIENlcnRpZmljYXRlMA4GA1UdDwEB/wQEAwIC
/DAgBgNVHSUBAf8EFjAUBggrBgEFBQcDAQYIKwYBBQUHAwIwDQYJKoZIhvcNAQEL
BQADggEBAGShvTTL2fwaACcBczWIDtj13jjWZouJuRfGm0tdFbWxiDJaO0SwC4im
UMubjUcBfF8VTfGj2TGZd0cNk2/YxfwCDfqNLT1LsjxWzyqSJ6KJ+It9Rkara+86
ggUXFOHbOJGqgcZ8zjpPCctF9dvOvBzYvhluNBITZ3cR1Nc1BuBrjKQfr3Ie9Ey3
s8YNY4eGFdQTo1HrgoBYgwEcN6mv9wh9WNAE2Go6WomC25tiBOxS7bqNeEP4plFc
iIHZHUIRWiIILzzKc4UOzb0wGJhbe4gXlt6be93DUvgR5ANI4lXxFvBRgR1Ut/Or
kaCVayO9RSKoDTx+w/43TFEGGPJ9WRM=
-----END CERTIFICATE-----
