Certificate:
    Data:
        Version: 3 (0x2)
        Serial Number: 4104 (0x1008)
    Signature Algorithm: sha256WithRSAEncryption
        Issuer: C=FR, ST=IDF, L=Paris, O=Local NODE-OPCUA Certificate Authority, CN=NodeOPCUA-CA
        Validity
            Not Before: Aug 28 11:14:05 2017 GMT
            Not After : Aug 28 11:14:05 2018 GMT
        Subject: C=FR, O=NodeOPCUA, CN=NodeOPCUA
        Subject Public Key Info:
            Public Key Algorithm: rsaEncryption
                Public-Key: (1024 bit)
                Modulus:
                    00:ac:45:20:77:36:b0:24:b4:7a:05:3b:a6:47:7e:
                    4f:ab:f9:9c:a7:67:89:70:56:0c:72:44:ad:8c:bb:
                    a6:86:80:19:60:a1:f9:30:03:ff:86:78:7d:cf:de:
                    a3:ee:56:38:6f:a1:2e:60:a4:21:20:44:75:e6:f6:
                    81:24:e6:f3:37:e8:51:fd:b8:59:10:71:ef:be:09:
                    78:d4:97:e6:43:f9:c9:d1:be:8f:95:31:b1:a6:8e:
                    c6:1f:cb:e0:42:a9:a9:f8:61:67:81:ab:57:a2:59:
                    94:63:52:b3:3d:6e:11:8b:ef:cd:b3:07:83:11:e4:
                    0a:67:fd:13:d6:68:56:34:ef
                Exponent: 65537 (0x10001)
        X509v3 extensions:
            X509v3 Basic Constraints: critical
                CA:FALSE
            X509v3 Subject Key Identifier: 
                ED:38:F9:D4:94:9F:FD:BC:D4:3E:EE:09:7C:B9:58:0B:AB:31:1F:92
            X509v3 Authority Key Identifier: 
                keyid:76:2A:71:9E:BC:6F:90:D6:D8:9A:DD:14:DE:DC:7B:D2:9C:55:C3:24
                DirName:/C=FR/ST=IDF/L=Paris/O=Local NODE-OPCUA Certificate Authority/CN=NodeOPCUA-CA
                serial:F9:A7:8A:6B:15:59:CE:15

            X509v3 Subject Alternative Name: 
                URI:urn:NB5DSCR503191NB:NodeOPCUA-DiscoveryServer, DNS:localhost, DNS:NB5DSCR503191NB
            Netscape Comment: 
                OpenSSL Generated Certificate
            X509v3 Key Usage: critical
                Digital Signature, Non Repudiation, Key Encipherment, Data Encipherment, Key Agreement, Certificate Sign
            X509v3 Extended Key Usage: critical
                TLS Web Server Authentication, TLS Web Client Authentication
    Signature Algorithm: sha256WithRSAEncryption
         8a:ef:5b:97:e0:b3:97:da:56:e1:65:ac:ce:99:c1:a6:28:79:
         76:3f:a1:7a:94:4f:17:f3:36:bc:4d:18:d1:fd:5b:81:bc:d0:
         08:4d:e6:a8:ab:79:89:38:74:d8:a5:f1:85:12:7b:c6:f9:f0:
         1c:c8:d3:b1:e1:44:4d:d6:ab:91:f7:2f:be:a2:01:03:6a:2a:
         3c:da:88:f2:2e:8e:3d:56:94:b2:07:c0:3a:ea:e5:35:b9:09:
         e5:f6:b5:64:76:5c:c5:1c:49:c9:b3:b3:89:ae:8f:2a:c4:88:
         c4:ce:09:76:a8:15:37:d2:63:43:85:8a:c7:ab:db:1d:be:89:
         a2:1f:5b:21:ab:e9:b3:0d:db:02:9d:04:9c:11:8f:2b:6f:5d:
         26:a1:50:72:e4:32:b1:54:7d:9d:c9:08:a9:50:03:3b:14:80:
         16:a9:30:7a:9d:ca:06:83:c1:00:8b:64:ad:27:4a:4e:4e:60:
         c0:02:17:83:5e:a5:b6:a1:b6:cb:e2:e8:bb:d1:4a:7b:43:a9:
         e9:7a:bd:13:ef:b9:e2:2a:73:f2:f3:25:0c:74:36:f0:62:d4:
         c6:e8:5c:1d:98:d1:5c:f0:a9:17:3b:67:03:e7:eb:bc:2c:35:
         0f:ca:1c:97:9e:b0:cf:ba:e8:d9:a1:bc:7f:21:79:e1:fd:59:
         f0:36:36:73
-----BEGIN CERTIFICATE-----
MIIENTCCAx2gAwIBAgICEAgwDQYJKoZIhvcNAQELBQAwczELMAkGA1UEBhMCRlIx
DDAKBgNVBAgTA0lERjEOMAwGA1UEBxMFUGFyaXMxLzAtBgNVBAoTJkxvY2FsIE5P
REUtT1BDVUEgQ2VydGlmaWNhdGUgQXV0aG9yaXR5MRUwEwYDVQQDEwxOb2RlT1BD
VUEtQ0EwIhgPMjAxNzA4MjgxMTE0MDVaGA8yMDE4MDgyODExMTQwNVowNTELMAkG
A1UEBhMCRlIxEjAQBgNVBAoMCU5vZGVPUENVQTESMBAGA1UEAwwJTm9kZU9QQ1VB
MIGfMA0GCSqGSIb3DQEBAQUAA4GNADCBiQKBgQCsRSB3NrAktHoFO6ZHfk+r+Zyn
Z4lwVgxyRK2Mu6aGgBlgofkwA/+GeH3P3qPuVjhvoS5gpCEgRHXm9oEk5vM36FH9
uFkQce++CXjUl+ZD+cnRvo+VMbGmjsYfy+BCqan4YWeBq1eiWZRjUrM9bhGL782z
B4MR5Apn/RPWaFY07wIDAQABo4IBjzCCAYswDAYDVR0TAQH/BAIwADAdBgNVHQ4E
FgQU7Tj51JSf/bzUPu4JfLlYC6sxH5IwgaUGA1UdIwSBnTCBmoAUdipxnrxvkNbY
mt0U3tx70pxVwyShd6R1MHMxCzAJBgNVBAYTAkZSMQwwCgYDVQQIEwNJREYxDjAM
BgNVBAcTBVBhcmlzMS8wLQYDVQQKEyZMb2NhbCBOT0RFLU9QQ1VBIENlcnRpZmlj
YXRlIEF1dGhvcml0eTEVMBMGA1UEAxMMTm9kZU9QQ1VBLUNBggkA+aeKaxVZzhUw
VAYDVR0RBE0wS4YtdXJuOk5CNURTQ1I1MDMxOTFOQjpOb2RlT1BDVUEtRGlzY292
ZXJ5U2VydmVygglsb2NhbGhvc3SCD05CNURTQ1I1MDMxOTFOQjAsBglghkgBhvhC
AQ0EHxYdT3BlblNTTCBHZW5lcmF0ZWQgQ2VydGlmaWNhdGUwDgYDVR0PAQH/BAQD
AgL8MCAGA1UdJQEB/wQWMBQGCCsGAQUFBwMBBggrBgEFBQcDAjANBgkqhkiG9w0B
AQsFAAOCAQEAiu9bl+Czl9pW4WWszpnBpih5dj+hepRPF/M2vE0Y0f1bgbzQCE3m
qKt5iTh02KXxhRJ7xvnwHMjTseFETdarkfcvvqIBA2oqPNqI8i6OPVaUsgfAOurl
NbkJ5fa1ZHZcxRxJybOzia6PKsSIxM4JdqgVN9JjQ4WKx6vbHb6Joh9bIavpsw3b
Ap0EnBGPK29dJqFQcuQysVR9nckIqVADOxSAFqkwep3KBoPBAItkrSdKTk5gwAIX
g16ltqG2y+Lou9FKe0Op6Xq9E++54ipz8vMlDHQ28GLUxuhcHZjRXPCpFztnA+fr
vCw1D8ocl56wz7ro2aG8fyF54f1Z8DY2cw==
-----END CERTIFICATE-----
