Certificate:
    Data:
        Version: 3 (0x2)
        Serial Number: 4105 (0x1009)
    Signature Algorithm: sha256WithRSAEncryption
        Issuer: O=NodeOPCUA, CN=NodeOPCUA
        Validity
            Not Before: Aug 28 11:14:05 2017 GMT
            Not After : Aug 28 11:14:05 2018 GMT
        Subject: O=NodeOPCUA, CN=NodeOPCUA
        Subject Public Key Info:
            Public Key Algorithm: rsaEncryption
                Public-Key: (1024 bit)
                Modulus:
                    00:ac:45:20:77:36:b0:24:b4:7a:05:3b:a6:47:7e:
                    4f:ab:f9:9c:a7:67:89:70:56:0c:72:44:ad:8c:bb:
                    a6:86:80:19:60:a1:f9:30:03:ff:86:78:7d:cf:de:
                    a3:ee:56:38:6f:a1:2e:60:a4:21:20:44:75:e6:f6:
                    81:24:e6:f3:37:e8:51:fd:b8:59:10:71:ef:be:09:
                    78:d4:97:e6:43:f9:c9:d1:be:8f:95:31:b1:a6:8e:
                    c6:1f:cb:e0:42:a9:a9:f8:61:67:81:ab:57:a2:59:
                    94:63:52:b3:3d:6e:11:8b:ef:cd:b3:07:83:11:e4:
                    0a:67:fd:13:d6:68:56:34:ef
                Exponent: 65537 (0x10001)
        X509v3 extensions:
            X509v3 Basic Constraints: critical
                CA:FALSE
            X509v3 Subject Key Identifier: 
                ED:38:F9:D4:94:9F:FD:BC:D4:3E:EE:09:7C:B9:58:0B:AB:31:1F:92
            X509v3 Authority Key Identifier: 
                keyid:ED:38:F9:D4:94:9F:FD:BC:D4:3E:EE:09:7C:B9:58:0B:AB:31:1F:92
                DirName:/O=NodeOPCUA/CN=NodeOPCUA
                serial:10:09

            X509v3 Subject Alternative Name: 
                URI:urn:NB5DSCR503191NB:NodeOPCUA-DiscoveryServer, DNS:localhost, DNS:NB5DSCR503191NB
            Netscape Comment: 
                OpenSSL Generated Certificate
            X509v3 Key Usage: critical
                Digital Signature, Non Repudiation, Key Encipherment, Data Encipherment, Key Agreement, Certificate Sign
            X509v3 Extended Key Usage: critical
                TLS Web Server Authentication, TLS Web Client Authentication
    Signature Algorithm: sha256WithRSAEncryption
         00:ad:eb:6b:1d:30:ca:52:ad:5d:f0:ee:23:ed:1d:46:f7:13:
         9d:13:f8:af:94:67:39:fb:5d:ba:50:3c:52:68:e4:a5:07:80:
         44:10:da:88:bd:69:be:bd:d4:9e:6c:dd:5f:66:bc:29:2a:6b:
         97:ff:8d:aa:cd:6c:3d:0b:fc:21:8d:5e:a9:fc:31:3e:5c:b6:
         60:84:99:fe:1b:d7:53:fc:17:17:f5:23:08:22:8d:e2:29:79:
         df:04:ed:13:b9:95:fc:8a:b6:2f:84:46:58:82:3e:80:f6:ad:
         92:3a:d1:6b:22:c6:fa:5c:cc:bf:62:ce:c2:11:c2:20:77:67:
         8e:c0
-----BEGIN CERTIFICATE-----
MIIDBzCCAnCgAwIBAgICEAkwDQYJKoZIhvcNAQELBQAwKDESMBAGA1UEChMJTm9k
ZU9QQ1VBMRIwEAYDVQQDEwlOb2RlT1BDVUEwIhgPMjAxNzA4MjgxMTE0MDVaGA8y
MDE4MDgyODExMTQwNVowKDESMBAGA1UEChMJTm9kZU9QQ1VBMRIwEAYDVQQDEwlO
b2RlT1BDVUEwgZ8wDQYJKoZIhvcNAQEBBQADgY0AMIGJAoGBAKxFIHc2sCS0egU7
pkd+T6v5nKdniXBWDHJErYy7poaAGWCh+TAD/4Z4fc/eo+5WOG+hLmCkISBEdeb2
gSTm8zfoUf24WRBx774JeNSX5kP5ydG+j5UxsaaOxh/L4EKpqfhhZ4GrV6JZlGNS
sz1uEYvvzbMHgxHkCmf9E9ZoVjTvAgMBAAGjggE6MIIBNjAMBgNVHRMBAf8EAjAA
MB0GA1UdDgQWBBTtOPnUlJ/9vNQ+7gl8uVgLqzEfkjBRBgNVHSMESjBIgBTtOPnU
lJ/9vNQ+7gl8uVgLqzEfkqEspCowKDESMBAGA1UEChMJTm9kZU9QQ1VBMRIwEAYD
VQQDEwlOb2RlT1BDVUGCAhAJMFQGA1UdEQRNMEuGLXVybjpOQjVEU0NSNTAzMTkx
TkI6Tm9kZU9QQ1VBLURpc2NvdmVyeVNlcnZlcoIJbG9jYWxob3N0gg9OQjVEU0NS
NTAzMTkxTkIwLAYJYIZIAYb4QgENBB8WHU9wZW5TU0wgR2VuZXJhdGVkIENlcnRp
ZmljYXRlMA4GA1UdDwEB/wQEAwIC/DAgBgNVHSUBAf8EFjAUBggrBgEFBQcDAQYI
KwYBBQUHAwIwDQYJKoZIhvcNAQELBQADgYEAAK3rax0wylKtXfDuI+0dRvcTnRP4
r5RnOftdulA8UmjkpQeARBDaiL1pvr3UnmzdX2a8KSprl/+Nqs1sPQv8IY1eqfwx
Ply2YISZ/hvXU/wXF/UjCCKN4il53wTtE7mV/Iq2L4RGWII+gPatkjrRayLG+lzM
v2LOwhHCIHdnjsA=
-----END CERTIFICATE-----
