Certificate:
    Data:
        Version: 3 (0x2)
        Serial Number: 4107 (0x100b)
    Signature Algorithm: sha256WithRSAEncryption
        Issuer: O=NodeOPCUA, CN=NodeOPCUA
        Validity
            Not Before: Sep  3 10:43:33 2018 GMT
            Not After : Sep  3 10:43:33 2019 GMT
        Subject: O=NodeOPCUA, CN=NodeOPCUA
        Subject Public Key Info:
            Public Key Algorithm: rsaEncryption
                Public-Key: (2048 bit)
                Modulus:
                    00:a4:d5:36:39:98:d1:37:e9:88:05:43:fd:d4:01:
                    26:7b:eb:25:12:fb:14:bd:fb:3c:9f:50:b5:26:6d:
                    44:fc:42:5e:df:03:49:e1:ed:5b:64:3e:7a:c5:6c:
                    cf:a9:4d:05:7f:b5:31:ec:63:93:dd:70:70:b6:a9:
                    0e:05:50:50:6a:ad:61:00:c9:63:65:47:da:5a:42:
                    12:8d:eb:29:68:be:55:e6:f8:19:a6:15:3c:f2:2e:
                    ab:56:ea:66:95:78:fe:78:f4:5a:a7:aa:b3:48:b9:
                    b6:2f:86:75:42:68:64:97:90:dc:23:39:f9:cd:0c:
                    53:4a:a3:b8:ff:3c:e2:46:af:ad:8e:3a:7b:4f:62:
                    00:b2:a4:44:f6:d1:ab:a8:4d:d5:5c:07:8c:c4:7d:
                    b5:76:ab:e2:a4:a1:1e:08:67:c5:04:06:82:81:3e:
                    18:d5:fe:e1:46:75:2f:dd:09:95:0f:10:92:6b:59:
                    ae:b5:f2:4a:e5:2c:93:18:24:3c:98:c3:c1:8d:3f:
                    02:9f:7e:04:d5:3c:4b:a9:28:7f:f2:1e:75:2d:90:
                    f3:e9:12:4b:18:1b:90:b4:2c:d2:11:6c:e8:69:d6:
                    bb:fb:59:18:d7:5e:ba:b1:13:18:b4:6a:22:53:80:
                    c0:15:a5:45:bd:da:84:e0:4a:bf:83:6c:8b:d1:51:
                    ef:83
                Exponent: 65537 (0x10001)
        X509v3 extensions:
            X509v3 Basic Constraints: critical
                CA:FALSE
            X509v3 Subject Key Identifier: 
                65:48:43:11:97:98:BD:B2:E7:1E:F4:B2:7F:1F:97:97:12:2D:6D:0C
            X509v3 Authority Key Identifier: 
                keyid:65:48:43:11:97:98:BD:B2:E7:1E:F4:B2:7F:1F:97:97:12:2D:6D:0C
                DirName:/O=NodeOPCUA/CN=NodeOPCUA
                serial:10:0B

            X509v3 Subject Alternative Name: 
                URI:urn:NB5DSCR503191NB:NodeOPCUA-DiscoveryServer, DNS:localhost, DNS:NB5DSCR503191NB
            Netscape Comment: 
                OpenSSL Generated Certificate
            X509v3 Key Usage: critical
                Digital Signature, Non Repudiation, Key Encipherment, Data Encipherment, Key Agreement, Certificate Sign
            X509v3 Extended Key Usage: critical
                TLS Web Server Authentication, TLS Web Client Authentication
    Signature Algorithm: sha256WithRSAEncryption
         81:43:35:a4:8b:f1:da:2b:0b:84:a2:54:d1:2b:6a:2a:ac:89:
         77:9a:b0:d9:38:8e:45:aa:77:05:22:18:22:83:f5:0d:b2:95:
         b8:db:f6:9f:ac:af:05:81:d7:76:47:a0:c8:6e:45:27:ac:48:
         0f:0b:ef:0b:68:4e:b1:d4:c1:47:62:15:f3:e1:8a:c4:c8:16:
         60:4e:d4:fb:cd:5f:3b:e7:0c:99:b8:f4:5c:67:3c:58:4c:ce:
         1d:59:c1:8b:7c:0b:b1:d9:3b:f6:6c:c4:46:49:2c:12:97:9f:
         a8:3c:ec:6d:e0:36:9f:a3:3d:2a:0c:d4:71:22:70:ba:12:d7:
         3d:83:11:63:d0:b2:c0:e9:fe:a3:33:57:62:08:c4:76:73:19:
         0c:0b:45:cc:f0:f9:47:6c:02:40:36:e3:15:68:39:e1:01:1a:
         7b:16:ba:4c:96:97:57:cf:6f:f1:3c:3a:14:9e:70:c1:e5:d1:
         f7:45:c7:c2:b6:34:9a:7d:2e:48:ff:43:4e:1c:d2:9f:f1:e0:
         72:91:47:ae:32:19:48:3c:64:db:47:cf:4e:f1:91:0c:86:ab:
         8c:2b:45:30:99:f3:aa:0c:0c:50:99:3c:9a:00:d3:3f:72:5f:
         fa:19:79:59:29:5f:44:3b:c1:67:db:1b:0f:b3:13:bd:fa:06:
         b3:22:71:3d
-----BEGIN CERTIFICATE-----
MIIEDDCCAvSgAwIBAgICEAswDQYJKoZIhvcNAQELBQAwKDESMBAGA1UEChMJTm9k
ZU9QQ1VBMRIwEAYDVQQDEwlOb2RlT1BDVUEwIhgPMjAxODA5MDMxMDQzMzNaGA8y
MDE5MDkwMzEwNDMzM1owKDESMBAGA1UEChMJTm9kZU9QQ1VBMRIwEAYDVQQDEwlO
b2RlT1BDVUEwggEiMA0GCSqGSIb3DQEBAQUAA4IBDwAwggEKAoIBAQCk1TY5mNE3
6YgFQ/3UASZ76yUS+xS9+zyfULUmbUT8Ql7fA0nh7VtkPnrFbM+pTQV/tTHsY5Pd
cHC2qQ4FUFBqrWEAyWNlR9paQhKN6ylovlXm+BmmFTzyLqtW6maVeP549FqnqrNI
ubYvhnVCaGSXkNwjOfnNDFNKo7j/POJGr62OOntPYgCypET20auoTdVcB4zEfbV2
q+KkoR4IZ8UEBoKBPhjV/uFGdS/dCZUPEJJrWa618krlLJMYJDyYw8GNPwKffgTV
PEupKH/yHnUtkPPpEksYG5C0LNIRbOhp1rv7WRjXXrqxExi0aiJTgMAVpUW92oTg
Sr+DbIvRUe+DAgMBAAGjggE6MIIBNjAMBgNVHRMBAf8EAjAAMB0GA1UdDgQWBBRl
SEMRl5i9suce9LJ/H5eXEi1tDDBRBgNVHSMESjBIgBRlSEMRl5i9suce9LJ/H5eX
Ei1tDKEspCowKDESMBAGA1UEChMJTm9kZU9QQ1VBMRIwEAYDVQQDEwlOb2RlT1BD
VUGCAhALMFQGA1UdEQRNMEuGLXVybjpOQjVEU0NSNTAzMTkxTkI6Tm9kZU9QQ1VB
LURpc2NvdmVyeVNlcnZlcoIJbG9jYWxob3N0gg9OQjVEU0NSNTAzMTkxTkIwLAYJ
YIZIAYb4QgENBB8WHU9wZW5TU0wgR2VuZXJhdGVkIENlcnRpZmljYXRlMA4GA1Ud
DwEB/wQEAwIC/DAgBgNVHSUBAf8EFjAUBggrBgEFBQcDAQYIKwYBBQUHAwIwDQYJ
KoZIhvcNAQELBQADggEBAIFDNaSL8dorC4SiVNEraiqsiXeasNk4jkWqdwUiGCKD
9Q2ylbjb9p+srwWB13ZHoMhuRSesSA8L7wtoTrHUwUdiFfPhisTIFmBO1PvNXzvn
DJm49FxnPFhMzh1ZwYt8C7HZO/ZsxEZJLBKXn6g87G3gNp+jPSoM1HEicLoS1z2D
EWPQssDp/qMzV2IIxHZzGQwLRczw+UdsAkA24xVoOeEBGnsWukyWl1fPb/E8OhSe
cMHl0fdFx8K2NJp9Lkj/Q04c0p/x4HKRR64yGUg8ZNtHz07xkQyGq4wrRTCZ86oM
DFCZPJoA0z9yX/oZeVkpX0Q7wWfbGw+zE736BrMicT0=
-----END CERTIFICATE-----
