Certificate:
    Data:
        Version: 3 (0x2)
        Serial Number: 4107 (0x100b)
    Signature Algorithm: sha256WithRSAEncryption
        Issuer: O=NodeOPCUA, CN=NodeOPCUA
        Validity
            Not Before: Aug 28 11:14:05 2017 GMT
            Not After : Aug 28 11:14:05 2018 GMT
        Subject: O=NodeOPCUA, CN=NodeOPCUA
        Subject Public Key Info:
            Public Key Algorithm: rsaEncryption
                Public-Key: (2048 bit)
                Modulus:
                    00:d0:0d:6d:c1:62:1f:05:bf:7e:cc:96:b0:8a:67:
                    0a:5f:69:b6:fd:b8:9e:03:f2:40:71:db:2f:33:a8:
                    29:d5:2d:f2:15:5c:85:39:12:54:5b:0a:f3:89:b5:
                    5c:ef:5d:49:13:92:b1:8e:89:f6:a3:fc:8d:2c:84:
                    76:74:91:f5:e3:d9:3b:54:de:24:6e:41:25:96:5e:
                    75:46:e0:97:fe:40:c1:12:af:a7:64:43:6f:1d:95:
                    6a:f6:dc:41:17:3b:7f:54:25:f9:8d:b8:1c:e5:6c:
                    d4:56:a6:cd:d7:8d:24:15:03:07:62:31:de:3a:bf:
                    d9:79:06:72:ab:d6:95:39:71:d5:6a:56:07:fa:69:
                    38:f1:0e:a7:a7:a8:d7:f8:cf:37:72:fe:be:7f:66:
                    7f:96:a5:ab:01:e0:0f:90:ba:a2:68:0d:d6:49:5d:
                    45:fb:93:9f:66:08:d7:b6:a8:2d:6a:57:e4:f3:80:
                    f3:43:93:0a:e3:f2:46:a9:ae:10:76:8c:e3:56:97:
                    8a:07:be:fc:30:6e:d8:9b:13:aa:1f:38:ca:ad:4f:
                    72:33:9e:2d:8c:60:b8:8e:16:88:4c:1b:aa:f3:c6:
                    46:4e:4a:29:d4:8f:7c:43:d5:94:2b:d2:ea:56:90:
                    a0:6e:cd:24:1b:b3:5f:d8:ba:31:27:17:a6:02:d9:
                    61:df
                Exponent: 65537 (0x10001)
        X509v3 extensions:
            X509v3 Basic Constraints: critical
                CA:FALSE
            X509v3 Subject Key Identifier: 
                5B:9F:EC:70:C1:C6:CA:4A:5E:B2:C9:CE:F1:1B:BE:8B:C7:EA:DD:A3
            X509v3 Authority Key Identifier: 
                keyid:5B:9F:EC:70:C1:C6:CA:4A:5E:B2:C9:CE:F1:1B:BE:8B:C7:EA:DD:A3
                DirName:/O=NodeOPCUA/CN=NodeOPCUA
                serial:10:0B

            X509v3 Subject Alternative Name: 
                URI:urn:NB5DSCR503191NB:NodeOPCUA-DiscoveryServer, DNS:localhost, DNS:NB5DSCR503191NB
            Netscape Comment: 
                OpenSSL Generated Certificate
            X509v3 Key Usage: critical
                Digital Signature, Non Repudiation, Key Encipherment, Data Encipherment, Key Agreement, Certificate Sign
            X509v3 Extended Key Usage: critical
                TLS Web Server Authentication, TLS Web Client Authentication
    Signature Algorithm: sha256WithRSAEncryption
         bd:8e:6f:de:04:f4:8b:d2:47:5f:9b:be:a0:ea:32:63:88:98:
         f1:a4:f2:aa:57:3d:3b:da:64:34:39:a9:80:9a:05:b9:a6:dd:
         90:9e:28:5c:11:fc:72:a9:76:87:3d:58:48:07:e4:a4:7c:38:
         8d:9b:3d:dc:e0:dd:de:cb:6a:ec:87:17:4b:f8:89:ad:0e:75:
         c1:e7:9e:29:85:b5:79:8d:16:ad:47:9a:b5:cf:ba:1a:fa:a7:
         d8:e8:66:70:64:e3:a1:e0:7a:40:69:dc:2b:45:d4:78:9e:ed:
         b1:f5:92:d0:55:4c:9f:5a:51:5d:63:a8:8c:fd:2d:b3:f3:9e:
         70:31:9a:d0:90:4c:6f:98:08:a8:01:e0:f8:ce:b7:86:f6:12:
         99:58:71:d5:42:ba:6e:2e:1c:7f:5b:dc:b1:1f:74:62:30:93:
         61:a1:39:c5:0a:dd:8d:db:f1:44:6f:e0:04:7f:38:e7:4b:cb:
         38:87:5d:96:40:56:3f:45:18:c1:72:7d:25:a7:1b:f5:81:7c:
         c5:ac:46:1c:ca:aa:f9:f3:1a:de:26:de:e8:b6:f9:50:59:f2:
         a2:fe:b1:5e:a5:66:50:f8:97:ae:a7:c5:80:e4:08:9f:29:ce:
         64:b1:82:f5:60:12:80:77:0e:16:6a:b9:c7:15:8b:a2:8f:34:
         51:a1:35:9c
-----BEGIN CERTIFICATE-----
MIIEDDCCAvSgAwIBAgICEAswDQYJKoZIhvcNAQELBQAwKDESMBAGA1UEChMJTm9k
ZU9QQ1VBMRIwEAYDVQQDEwlOb2RlT1BDVUEwIhgPMjAxNzA4MjgxMTE0MDVaGA8y
MDE4MDgyODExMTQwNVowKDESMBAGA1UEChMJTm9kZU9QQ1VBMRIwEAYDVQQDEwlO
b2RlT1BDVUEwggEiMA0GCSqGSIb3DQEBAQUAA4IBDwAwggEKAoIBAQDQDW3BYh8F
v37MlrCKZwpfabb9uJ4D8kBx2y8zqCnVLfIVXIU5ElRbCvOJtVzvXUkTkrGOifaj
/I0shHZ0kfXj2TtU3iRuQSWWXnVG4Jf+QMESr6dkQ28dlWr23EEXO39UJfmNuBzl
bNRWps3XjSQVAwdiMd46v9l5BnKr1pU5cdVqVgf6aTjxDqenqNf4zzdy/r5/Zn+W
pasB4A+QuqJoDdZJXUX7k59mCNe2qC1qV+TzgPNDkwrj8kaprhB2jONWl4oHvvww
btibE6ofOMqtT3Izni2MYLiOFohMG6rzxkZOSinUj3xD1ZQr0upWkKBuzSQbs1/Y
ujEnF6YC2WHfAgMBAAGjggE6MIIBNjAMBgNVHRMBAf8EAjAAMB0GA1UdDgQWBBRb
n+xwwcbKSl6yyc7xG76Lx+rdozBRBgNVHSMESjBIgBRbn+xwwcbKSl6yyc7xG76L
x+rdo6EspCowKDESMBAGA1UEChMJTm9kZU9QQ1VBMRIwEAYDVQQDEwlOb2RlT1BD
VUGCAhALMFQGA1UdEQRNMEuGLXVybjpOQjVEU0NSNTAzMTkxTkI6Tm9kZU9QQ1VB
LURpc2NvdmVyeVNlcnZlcoIJbG9jYWxob3N0gg9OQjVEU0NSNTAzMTkxTkIwLAYJ
YIZIAYb4QgENBB8WHU9wZW5TU0wgR2VuZXJhdGVkIENlcnRpZmljYXRlMA4GA1Ud
DwEB/wQEAwIC/DAgBgNVHSUBAf8EFjAUBggrBgEFBQcDAQYIKwYBBQUHAwIwDQYJ
KoZIhvcNAQELBQADggEBAL2Ob94E9IvSR1+bvqDqMmOImPGk8qpXPTvaZDQ5qYCa
Bbmm3ZCeKFwR/HKpdoc9WEgH5KR8OI2bPdzg3d7LauyHF0v4ia0OdcHnnimFtXmN
Fq1HmrXPuhr6p9joZnBk46HgekBp3CtF1Hie7bH1ktBVTJ9aUV1jqIz9LbPznnAx
mtCQTG+YCKgB4PjOt4b2EplYcdVCum4uHH9b3LEfdGIwk2GhOcUK3Y3b8URv4AR/
OOdLyziHXZZAVj9FGMFyfSWnG/WBfMWsRhzKqvnzGt4m3ui2+VBZ8qL+sV6lZlD4
l66nxYDkCJ8pzmSxgvVgEoB3DhZquccVi6KPNFGhNZw=
-----END CERTIFICATE-----
