Certificate:
    Data:
        Version: 3 (0x2)
        Serial Number: 4099 (0x1003)
    Signature Algorithm: sha256WithRSAEncryption
        Issuer: O=NodeOPCUA, CN=NodeOPCUA
        Validity
            Not Before: Aug 28 11:14:05 2017 GMT
            Not After : Aug 28 11:14:05 2018 GMT
        Subject: O=NodeOPCUA, CN=NodeOPCUA
        Subject Public Key Info:
            Public Key Algorithm: rsaEncryption
                Public-Key: (2048 bit)
                Modulus:
                    00:ce:bf:bf:b0:5d:f6:77:9d:47:f1:9c:d2:42:a9:
                    00:3a:c2:f4:06:8f:5f:19:4b:db:7e:f6:10:0a:20:
                    bf:fd:94:28:6f:af:39:b7:26:67:0f:f9:2e:7b:60:
                    31:59:b8:f1:95:c7:45:14:4f:8c:a2:5a:83:0e:3c:
                    7a:91:4d:e3:a4:af:d9:3f:a7:44:b8:25:af:17:5c:
                    ff:ac:6b:d9:c3:cf:70:67:09:fc:3b:dd:c7:10:00:
                    fb:a0:89:9e:41:1a:ea:bb:ce:ac:89:44:72:15:0e:
                    1a:e3:6d:a4:13:62:e2:65:10:36:a5:11:1f:df:92:
                    83:b6:4a:9d:cb:3a:2e:68:9a:f2:03:12:1c:a0:53:
                    de:f6:2d:7e:fb:13:df:40:63:89:40:c2:a0:8c:a9:
                    9e:29:47:01:da:d1:f0:ab:5a:d0:31:2e:69:80:8b:
                    c6:aa:b5:f1:68:57:16:2f:2d:12:0b:34:e9:b3:a9:
                    05:51:1a:f4:14:b7:a3:8e:3c:cf:de:f0:6a:7c:dc:
                    98:34:5b:12:08:7b:42:ac:cf:ed:6b:65:b8:a5:76:
                    75:15:19:03:7b:31:b7:6d:98:34:96:43:34:c2:2d:
                    88:d7:5a:37:6f:a1:3e:a9:e1:cd:00:7a:17:6c:05:
                    a3:1c:c1:bf:88:8b:57:dd:78:52:3e:55:69:82:f9:
                    01:2b
                Exponent: 65537 (0x10001)
        X509v3 extensions:
            X509v3 Basic Constraints: critical
                CA:FALSE
            X509v3 Subject Key Identifier: 
                F1:D6:AA:16:00:DF:C0:BB:7E:1B:2B:AF:42:31:08:6A:66:25:75:60
            X509v3 Authority Key Identifier: 
                keyid:F1:D6:AA:16:00:DF:C0:BB:7E:1B:2B:AF:42:31:08:6A:66:25:75:60
                DirName:/O=NodeOPCUA/CN=NodeOPCUA
                serial:10:03

            X509v3 Subject Alternative Name: 
                URI:urn:NB5DSCR503191NB:NodeOPCUA-Client, DNS:localhost, DNS:NB5DSCR503191NB
            Netscape Comment: 
                OpenSSL Generated Certificate
            X509v3 Key Usage: critical
                Digital Signature, Non Repudiation, Key Encipherment, Data Encipherment, Key Agreement, Certificate Sign
            X509v3 Extended Key Usage: critical
                TLS Web Server Authentication, TLS Web Client Authentication
    Signature Algorithm: sha256WithRSAEncryption
         09:e9:50:be:d1:a1:41:3d:ce:bb:20:24:06:d7:1c:48:ad:32:
         ce:24:fd:fb:7e:75:52:05:ec:40:7f:5b:ad:3b:40:d7:db:9b:
         ae:69:03:e1:f9:14:7b:5f:2e:41:68:36:06:1f:f1:d1:6d:13:
         e7:ef:c2:28:f5:35:25:86:a8:0c:48:e9:fb:07:6d:bc:99:6e:
         a4:14:25:08:bb:cd:91:f0:23:b6:d7:97:d5:00:14:ff:c9:48:
         f0:18:c4:69:e9:e3:82:c2:35:9a:7b:55:ea:a9:ae:05:8d:e4:
         a5:87:c2:0f:44:3b:92:ff:29:83:80:c9:ac:b9:c2:5f:c4:58:
         a4:89:cd:b0:9f:e8:47:84:c1:81:41:0c:48:cf:26:4d:46:49:
         8f:a4:ae:0c:bf:f4:8d:4a:6d:51:56:e7:6d:44:a9:21:55:b7:
         e4:4a:52:cd:6c:91:14:ab:ab:06:bf:f8:ac:24:6c:58:04:1b:
         5d:2d:8e:fa:21:a2:b6:fd:21:ff:e5:fa:c4:fa:b6:0a:e2:a2:
         4d:89:5f:61:60:62:d1:06:1e:da:42:de:ca:26:c8:db:1d:32:
         fd:53:43:b6:78:b8:82:15:ef:ae:ba:55:a8:f7:07:6f:aa:10:
         fc:30:ea:11:4f:3e:1e:13:04:b8:02:05:da:e5:89:c8:d6:7c:
         cf:bf:27:52
-----BEGIN CERTIFICATE-----
MIIEAzCCAuugAwIBAgICEAMwDQYJKoZIhvcNAQELBQAwKDESMBAGA1UEChMJTm9k
ZU9QQ1VBMRIwEAYDVQQDEwlOb2RlT1BDVUEwIhgPMjAxNzA4MjgxMTE0MDVaGA8y
MDE4MDgyODExMTQwNVowKDESMBAGA1UEChMJTm9kZU9QQ1VBMRIwEAYDVQQDEwlO
b2RlT1BDVUEwggEiMA0GCSqGSIb3DQEBAQUAA4IBDwAwggEKAoIBAQDOv7+wXfZ3
nUfxnNJCqQA6wvQGj18ZS9t+9hAKIL/9lChvrzm3JmcP+S57YDFZuPGVx0UUT4yi
WoMOPHqRTeOkr9k/p0S4Ja8XXP+sa9nDz3BnCfw73ccQAPugiZ5BGuq7zqyJRHIV
DhrjbaQTYuJlEDalER/fkoO2Sp3LOi5omvIDEhygU972LX77E99AY4lAwqCMqZ4p
RwHa0fCrWtAxLmmAi8aqtfFoVxYvLRILNOmzqQVRGvQUt6OOPM/e8Gp83Jg0WxII
e0Ksz+1rZbildnUVGQN7MbdtmDSWQzTCLYjXWjdvoT6p4c0AehdsBaMcwb+Ii1fd
eFI+VWmC+QErAgMBAAGjggExMIIBLTAMBgNVHRMBAf8EAjAAMB0GA1UdDgQWBBTx
1qoWAN/Au34bK69CMQhqZiV1YDBRBgNVHSMESjBIgBTx1qoWAN/Au34bK69CMQhq
ZiV1YKEspCowKDESMBAGA1UEChMJTm9kZU9QQ1VBMRIwEAYDVQQDEwlOb2RlT1BD
VUGCAhADMEsGA1UdEQREMEKGJHVybjpOQjVEU0NSNTAzMTkxTkI6Tm9kZU9QQ1VB
LUNsaWVudIIJbG9jYWxob3N0gg9OQjVEU0NSNTAzMTkxTkIwLAYJYIZIAYb4QgEN
BB8WHU9wZW5TU0wgR2VuZXJhdGVkIENlcnRpZmljYXRlMA4GA1UdDwEB/wQEAwIC
/DAgBgNVHSUBAf8EFjAUBggrBgEFBQcDAQYIKwYBBQUHAwIwDQYJKoZIhvcNAQEL
BQADggEBAAnpUL7RoUE9zrsgJAbXHEitMs4k/ft+dVIF7EB/W607QNfbm65pA+H5
FHtfLkFoNgYf8dFtE+fvwij1NSWGqAxI6fsHbbyZbqQUJQi7zZHwI7bXl9UAFP/J
SPAYxGnp44LCNZp7VeqprgWN5KWHwg9EO5L/KYOAyay5wl/EWKSJzbCf6EeEwYFB
DEjPJk1GSY+krgy/9I1KbVFW521EqSFVt+RKUs1skRSrqwa/+KwkbFgEG10tjvoh
orb9If/l+sT6tgriok2JX2FgYtEGHtpC3somyNsdMv1TQ7Z4uIIV7666Vaj3B2+q
EPww6hFPPh4TBLgCBdrlicjWfM+/J1I=
-----END CERTIFICATE-----
