Certificate:
    Data:
        Version: 3 (0x2)
        Serial Number: 4097 (0x1001)
    Signature Algorithm: sha256WithRSAEncryption
        Issuer: O=NodeOPCUA, CN=NodeOPCUA
        Validity
            Not Before: Aug 28 11:14:05 2017 GMT
            Not After : Aug 28 11:14:05 2018 GMT
        Subject: O=NodeOPCUA, CN=NodeOPCUA
        Subject Public Key Info:
            Public Key Algorithm: rsaEncryption
                Public-Key: (1024 bit)
                Modulus:
                    00:f7:a2:92:31:36:cf:44:70:e9:de:f3:49:49:5e:
                    cc:5f:08:22:82:78:f2:e4:91:5a:04:04:09:4f:2e:
                    0a:cf:88:c2:9f:bf:40:63:c5:7e:7f:0f:c4:fa:2c:
                    0c:81:83:4c:38:c9:03:34:94:9e:ba:4e:ad:56:8d:
                    d4:49:c0:20:93:21:14:45:2d:75:dd:20:9e:9d:5b:
                    1f:1a:d8:4c:a2:2a:a4:b6:f9:35:a4:93:4c:25:f9:
                    1a:9c:21:c5:71:27:ac:be:19:1b:56:5f:da:ea:b2:
                    6a:72:7d:b3:5b:e5:bd:52:01:36:26:5a:ae:c1:b1:
                    f0:08:22:51:46:ce:d4:1e:61
                Exponent: 65537 (0x10001)
        X509v3 extensions:
            X509v3 Basic Constraints: critical
                CA:FALSE
            X509v3 Subject Key Identifier: 
                52:7E:36:6D:60:66:4B:3B:39:74:00:87:BE:30:92:29:B3:97:73:31
            X509v3 Authority Key Identifier: 
                keyid:52:7E:36:6D:60:66:4B:3B:39:74:00:87:BE:30:92:29:B3:97:73:31
                DirName:/O=NodeOPCUA/CN=NodeOPCUA
                serial:10:01

            X509v3 Subject Alternative Name: 
                URI:urn:NB5DSCR503191NB:NodeOPCUA-Client, DNS:localhost, DNS:NB5DSCR503191NB
            Netscape Comment: 
                OpenSSL Generated Certificate
            X509v3 Key Usage: critical
                Digital Signature, Non Repudiation, Key Encipherment, Data Encipherment, Key Agreement, Certificate Sign
            X509v3 Extended Key Usage: critical
                TLS Web Server Authentication, TLS Web Client Authentication
    Signature Algorithm: sha256WithRSAEncryption
         3b:c8:a2:ea:7d:9f:4c:c4:39:31:49:4c:b7:a4:9b:00:53:91:
         e4:fa:c2:d1:b5:09:11:68:84:7f:6b:d4:02:e8:e8:fb:6a:97:
         f7:af:91:f4:8c:dd:45:c4:a6:a2:16:42:fa:9a:3a:72:92:fe:
         ee:ad:72:92:4e:ac:ef:35:a9:50:f7:0f:f0:70:5e:97:66:11:
         c1:00:fe:ee:77:21:a7:44:70:b1:5b:64:b9:7b:49:64:3b:42:
         5f:0c:ff:0d:66:6e:b7:4c:dc:d2:10:90:d4:4d:bd:6e:96:d2:
         1a:17:46:99:0d:f8:aa:ad:0b:e4:c2:f3:5d:e5:4e:d6:cb:9a:
         33:dd
-----BEGIN CERTIFICATE-----
MIIC/jCCAmegAwIBAgICEAEwDQYJKoZIhvcNAQELBQAwKDESMBAGA1UEChMJTm9k
ZU9QQ1VBMRIwEAYDVQQDEwlOb2RlT1BDVUEwIhgPMjAxNzA4MjgxMTE0MDVaGA8y
MDE4MDgyODExMTQwNVowKDESMBAGA1UEChMJTm9kZU9QQ1VBMRIwEAYDVQQDEwlO
b2RlT1BDVUEwgZ8wDQYJKoZIhvcNAQEBBQADgY0AMIGJAoGBAPeikjE2z0Rw6d7z
SUlezF8IIoJ48uSRWgQECU8uCs+Iwp+/QGPFfn8PxPosDIGDTDjJAzSUnrpOrVaN
1EnAIJMhFEUtdd0gnp1bHxrYTKIqpLb5NaSTTCX5GpwhxXEnrL4ZG1Zf2uqyanJ9
s1vlvVIBNiZarsGx8AgiUUbO1B5hAgMBAAGjggExMIIBLTAMBgNVHRMBAf8EAjAA
MB0GA1UdDgQWBBRSfjZtYGZLOzl0AIe+MJIps5dzMTBRBgNVHSMESjBIgBRSfjZt
YGZLOzl0AIe+MJIps5dzMaEspCowKDESMBAGA1UEChMJTm9kZU9QQ1VBMRIwEAYD
VQQDEwlOb2RlT1BDVUGCAhABMEsGA1UdEQREMEKGJHVybjpOQjVEU0NSNTAzMTkx
TkI6Tm9kZU9QQ1VBLUNsaWVudIIJbG9jYWxob3N0gg9OQjVEU0NSNTAzMTkxTkIw
LAYJYIZIAYb4QgENBB8WHU9wZW5TU0wgR2VuZXJhdGVkIENlcnRpZmljYXRlMA4G
A1UdDwEB/wQEAwIC/DAgBgNVHSUBAf8EFjAUBggrBgEFBQcDAQYIKwYBBQUHAwIw
DQYJKoZIhvcNAQELBQADgYEAO8ii6n2fTMQ5MUlMt6SbAFOR5PrC0bUJEWiEf2vU
Aujo+2qX96+R9IzdRcSmohZC+po6cpL+7q1ykk6s7zWpUPcP8HBel2YRwQD+7nch
p0RwsVtkuXtJZDtCXwz/DWZut0zc0hCQ1E29bpbSGhdGmQ34qq0L5MLzXeVO1sua
M90=
-----END CERTIFICATE-----
