Certificate Request:
    Data:
        Version: 0 (0x0)
        Subject: C=FR, O=NodeOPCUA, CN=NodeOPCUA
        Subject Public Key Info:
            Public Key Algorithm: rsaEncryption
                Public-Key: (1024 bit)
                Modulus:
                    00:e9:67:d2:61:5a:11:da:55:c7:f6:60:0d:1a:6a:
                    b8:d5:90:17:b9:01:b1:a1:fa:7a:43:d6:23:3c:04:
                    5e:87:22:58:38:76:21:bf:e6:14:51:5a:22:e2:f8:
                    f9:ed:40:2f:07:86:44:95:5e:d5:f1:f1:7a:c7:3d:
                    1a:48:06:bb:04:17:3d:e0:e7:b1:18:9e:69:1a:8e:
                    b8:04:64:82:a9:48:ff:e9:24:1c:7e:6a:9c:05:71:
                    7f:69:70:b2:55:20:35:71:07:9e:93:4e:fe:a9:3f:
                    f8:95:68:01:78:95:80:51:c2:40:a4:23:1f:30:fd:
                    84:ee:1b:22:ac:b7:8b:57:21
                Exponent: 65537 (0x10001)
        Attributes:
        Requested Extensions:
            X509v3 Basic Constraints: 
                CA:FALSE
            X509v3 Key Usage: critical
                Certificate Sign, CRL Sign
            X509v3 Subject Alternative Name: 
                URI:undefined
    Signature Algorithm: sha256WithRSAEncryption
         d9:c8:84:46:ed:d3:cc:b8:44:33:01:39:8a:ed:64:c0:e9:3c:
         18:0d:45:11:5c:63:08:82:e2:3e:69:29:54:b1:f9:00:80:2f:
         6c:ac:3f:a7:ed:d5:f1:98:d3:73:81:8e:7f:48:01:e3:ec:c2:
         29:b0:5f:68:db:b3:03:1e:e1:17:46:11:34:37:03:cc:f9:87:
         ab:c3:fc:82:c7:2e:f9:3a:4a:be:d6:14:ab:3c:bd:5f:70:81:
         38:b5:75:70:21:47:2d:61:6f:7e:b7:6e:8c:bc:cc:33:cb:49:
         51:99:61:58:ee:e9:11:89:c4:19:17:e5:de:45:74:c2:88:f8:
         7c:5a
-----BEGIN CERTIFICATE REQUEST-----
MIIBtzCCASACAQAwNTELMAkGA1UEBhMCRlIxEjAQBgNVBAoMCU5vZGVPUENVQTES
MBAGA1UEAwwJTm9kZU9QQ1VBMIGfMA0GCSqGSIb3DQEBAQUAA4GNADCBiQKBgQDp
Z9JhWhHaVcf2YA0aarjVkBe5AbGh+npD1iM8BF6HIlg4diG/5hRRWiLi+PntQC8H
hkSVXtXx8XrHPRpIBrsEFz3g57EYnmkajrgEZIKpSP/pJBx+apwFcX9pcLJVIDVx
B56TTv6pP/iVaAF4lYBRwkCkIx8w/YTuGyKst4tXIQIDAQABoEIwQAYJKoZIhvcN
AQkOMTMwMTAJBgNVHRMEAjAAMA4GA1UdDwEB/wQEAwIBBjAUBgNVHREEDTALhgl1
bmRlZmluZWQwDQYJKoZIhvcNAQELBQADgYEA2ciERu3TzLhEMwE5iu1kwOk8GA1F
EVxjCILiPmkpVLH5AIAvbKw/p+3V8ZjTc4GOf0gB4+zCKbBfaNuzAx7hF0YRNDcD
zPmHq8P8gscu+TpKvtYUqzy9X3CBOLV1cCFHLWFvfrdujLzMM8tJUZlhWO7pEYnE
GRfl3kV0woj4fFo=
-----END CERTIFICATE REQUEST-----
