Certificate:
    Data:
        Version: 3 (0x2)
        Serial Number: 4096 (0x1000)
    Signature Algorithm: sha256WithRSAEncryption
        Issuer: C=FR, ST=IDF, L=Paris, O=Local NODE-OPCUA Certificate Authority, CN=NodeOPCUA-CA
        Validity
            Not Before: Sep  3 10:43:33 2018 GMT
            Not After : Sep  3 10:43:33 2019 GMT
        Subject: C=FR, O=NodeOPCUA, CN=NodeOPCUA
        Subject Public Key Info:
            Public Key Algorithm: rsaEncryption
                Public-Key: (1024 bit)
                Modulus:
                    00:e9:67:d2:61:5a:11:da:55:c7:f6:60:0d:1a:6a:
                    b8:d5:90:17:b9:01:b1:a1:fa:7a:43:d6:23:3c:04:
                    5e:87:22:58:38:76:21:bf:e6:14:51:5a:22:e2:f8:
                    f9:ed:40:2f:07:86:44:95:5e:d5:f1:f1:7a:c7:3d:
                    1a:48:06:bb:04:17:3d:e0:e7:b1:18:9e:69:1a:8e:
                    b8:04:64:82:a9:48:ff:e9:24:1c:7e:6a:9c:05:71:
                    7f:69:70:b2:55:20:35:71:07:9e:93:4e:fe:a9:3f:
                    f8:95:68:01:78:95:80:51:c2:40:a4:23:1f:30:fd:
                    84:ee:1b:22:ac:b7:8b:57:21
                Exponent: 65537 (0x10001)
        X509v3 extensions:
            X509v3 Basic Constraints: critical
                CA:FALSE
            X509v3 Subject Key Identifier: 
                C1:5D:D0:FD:98:A4:92:84:81:56:1A:80:0E:AE:F3:FC:FC:03:52:BB
            X509v3 Authority Key Identifier: 
                keyid:86:4E:30:D2:2D:4E:5C:90:F0:21:CA:04:E0:3D:85:44:1D:07:2A:15
                DirName:/C=FR/ST=IDF/L=Paris/O=Local NODE-OPCUA Certificate Authority/CN=NodeOPCUA-CA
                serial:D3:4D:17:85:65:28:E7:25

            X509v3 Subject Alternative Name: 
                URI:urn:NB5DSCR503191NB:NodeOPCUA-Client, DNS:localhost, DNS:NB5DSCR503191NB
            Netscape Comment: 
                OpenSSL Generated Certificate
            X509v3 Key Usage: critical
                Digital Signature, Non Repudiation, Key Encipherment, Data Encipherment, Key Agreement, Certificate Sign
            X509v3 Extended Key Usage: critical
                TLS Web Server Authentication, TLS Web Client Authentication
    Signature Algorithm: sha256WithRSAEncryption
         9d:61:75:90:25:cc:dd:70:95:19:9f:3b:c0:55:25:2d:26:3c:
         1a:f3:aa:45:f9:2e:36:e6:74:81:4d:ea:7e:28:08:dd:fe:33:
         c1:a9:39:00:3f:7e:e9:7e:07:f7:07:8a:0d:2c:5c:25:1d:bd:
         40:83:df:f2:6b:35:ec:97:e5:d1:23:33:e5:c1:bc:4d:5d:22:
         2a:14:2c:98:fe:b2:6d:62:17:9f:59:fd:3b:78:c9:29:90:65:
         47:4f:9f:1b:6d:c8:46:76:54:6c:18:98:e5:96:33:48:7b:43:
         bc:d6:c3:0f:3d:1d:b4:11:03:1e:e0:9c:28:57:70:61:0e:e7:
         b6:23:43:59:f4:f0:90:75:66:73:71:ae:05:bb:c5:8c:c1:de:
         e8:f7:b9:fd:48:fe:2b:29:da:f1:8f:11:4f:0a:12:35:32:21:
         77:0d:d2:3f:26:0d:16:3b:f4:d1:c0:07:df:a9:c4:b3:a5:fb:
         93:d8:e0:10:e3:cd:06:3f:13:17:8d:10:68:45:83:6c:7f:e2:
         41:6b:e1:26:a7:c5:91:7a:60:3a:4b:33:12:0d:a0:6a:7d:84:
         c4:be:59:ae:f6:64:10:17:d7:24:66:33:9c:8b:d3:14:59:df:
         f2:e2:aa:99:6d:4e:1a:9c:20:c8:f8:fe:71:21:f2:26:89:b9:
         53:86:b0:82
-----BEGIN CERTIFICATE-----
MIIELDCCAxSgAwIBAgICEAAwDQYJKoZIhvcNAQELBQAwczELMAkGA1UEBhMCRlIx
DDAKBgNVBAgTA0lERjEOMAwGA1UEBxMFUGFyaXMxLzAtBgNVBAoTJkxvY2FsIE5P
REUtT1BDVUEgQ2VydGlmaWNhdGUgQXV0aG9yaXR5MRUwEwYDVQQDEwxOb2RlT1BD
VUEtQ0EwIhgPMjAxODA5MDMxMDQzMzNaGA8yMDE5MDkwMzEwNDMzM1owNTELMAkG
A1UEBhMCRlIxEjAQBgNVBAoMCU5vZGVPUENVQTESMBAGA1UEAwwJTm9kZU9QQ1VB
MIGfMA0GCSqGSIb3DQEBAQUAA4GNADCBiQKBgQDpZ9JhWhHaVcf2YA0aarjVkBe5
AbGh+npD1iM8BF6HIlg4diG/5hRRWiLi+PntQC8HhkSVXtXx8XrHPRpIBrsEFz3g
57EYnmkajrgEZIKpSP/pJBx+apwFcX9pcLJVIDVxB56TTv6pP/iVaAF4lYBRwkCk
Ix8w/YTuGyKst4tXIQIDAQABo4IBhjCCAYIwDAYDVR0TAQH/BAIwADAdBgNVHQ4E
FgQUwV3Q/ZikkoSBVhqADq7z/PwDUrswgaUGA1UdIwSBnTCBmoAUhk4w0i1OXJDw
IcoE4D2FRB0HKhWhd6R1MHMxCzAJBgNVBAYTAkZSMQwwCgYDVQQIEwNJREYxDjAM
BgNVBAcTBVBhcmlzMS8wLQYDVQQKEyZMb2NhbCBOT0RFLU9QQ1VBIENlcnRpZmlj
YXRlIEF1dGhvcml0eTEVMBMGA1UEAxMMTm9kZU9QQ1VBLUNBggkA000XhWUo5yUw
SwYDVR0RBEQwQoYkdXJuOk5CNURTQ1I1MDMxOTFOQjpOb2RlT1BDVUEtQ2xpZW50
gglsb2NhbGhvc3SCD05CNURTQ1I1MDMxOTFOQjAsBglghkgBhvhCAQ0EHxYdT3Bl
blNTTCBHZW5lcmF0ZWQgQ2VydGlmaWNhdGUwDgYDVR0PAQH/BAQDAgL8MCAGA1Ud
JQEB/wQWMBQGCCsGAQUFBwMBBggrBgEFBQcDAjANBgkqhkiG9w0BAQsFAAOCAQEA
nWF1kCXM3XCVGZ87wFUlLSY8GvOqRfkuNuZ0gU3qfigI3f4zwak5AD9+6X4H9weK
DSxcJR29QIPf8ms17Jfl0SMz5cG8TV0iKhQsmP6ybWIXn1n9O3jJKZBlR0+fG23I
RnZUbBiY5ZYzSHtDvNbDDz0dtBEDHuCcKFdwYQ7ntiNDWfTwkHVmc3GuBbvFjMHe
6Pe5/Uj+Kyna8Y8RTwoSNTIhdw3SPyYNFjv00cAH36nEs6X7k9jgEOPNBj8TF40Q
aEWDbH/iQWvhJqfFkXpgOkszEg2gan2ExL5ZrvZkEBfXJGYznIvTFFnf8uKqmW1O
GpwgyPj+cSHyJom5U4awgg==
-----END CERTIFICATE-----
-----BEGIN CERTIFICATE-----
MIIE3TCCA8WgAwIBAgIJANNNF4VlKOclMA0GCSqGSIb3DQEBCwUAMHMxCzAJBgNV
BAYTAkZSMQwwCgYDVQQIEwNJREYxDjAMBgNVBAcTBVBhcmlzMS8wLQYDVQQKEyZM
b2NhbCBOT0RFLU9QQ1VBIENlcnRpZmljYXRlIEF1dGhvcml0eTEVMBMGA1UEAxMM
Tm9kZU9QQ1VBLUNBMB4XDTE4MDkwNDEwNDMzNFoXDTI4MDkwMTEwNDMzNFowczEL
MAkGA1UEBhMCRlIxDDAKBgNVBAgTA0lERjEOMAwGA1UEBxMFUGFyaXMxLzAtBgNV
BAoTJkxvY2FsIE5PREUtT1BDVUEgQ2VydGlmaWNhdGUgQXV0aG9yaXR5MRUwEwYD
VQQDEwxOb2RlT1BDVUEtQ0EwggEiMA0GCSqGSIb3DQEBAQUAA4IBDwAwggEKAoIB
AQCvYUzijDNz77wTkCowT3+E4StzWetxBIGZbsaV2sMn8z+qKWqNS6jkFF28Us0J
dXQYChjkv+WKrjNXLNOJ8vByYwdKIStJaNXSPM7oepSJhO8WGHESi6qvEQhAC7fz
Rf/FsjJ6ebsceX1vtnCPrluB5HdgG6XSF/msJ9kBJi93ojfeiWD9StsIhhnl1QwX
HwLL6kBxE58AiFHnsFb5sDKzE3B56USaMwPATm4n0zMyGHZ443XbtZ83I6NU161q
WsFEIr4jaM9A41ZwZAmbGKWkfE/v+zujiqSNAfhUhUIDwSRuBNX3YE96M+C3HoUv
TjWVGIc8+B5nTtQqQgx8tgldAgMBAAGjggFyMIIBbjAdBgNVHQ4EFgQUhk4w0i1O
XJDwIcoE4D2FRB0HKhUwgaUGA1UdIwSBnTCBmoAUhk4w0i1OXJDwIcoE4D2FRB0H
KhWhd6R1MHMxCzAJBgNVBAYTAkZSMQwwCgYDVQQIEwNJREYxDjAMBgNVBAcTBVBh
cmlzMS8wLQYDVQQKEyZMb2NhbCBOT0RFLU9QQ1VBIENlcnRpZmljYXRlIEF1dGhv
cml0eTEVMBMGA1UEAxMMTm9kZU9QQ1VBLUNBggkA000XhWUo5yUwDAYDVR0TBAUw
AwEB/zAOBgNVHQ8BAf8EBAMCAQYwVwYJYIZIAYb4QgENBEoWSENBIENlcnRpZmlj
YXRlIGdlbmVyYXRlZCBieSBOb2RlLU9QQ1VBIENlcnRpZmljYXRlIHV0aWxpdHkg
dXNpbmcgb3BlbnNzbDAuBgNVHR8EJzAlMCOgIaAfhh1odHRwOi8vbG9jYWxob3N0
Ojg5MDAvY3JsLnBlbTANBgkqhkiG9w0BAQsFAAOCAQEAR3YnhJgfXuL2u7BkL0RS
+3ZIqhrvVGEJ5LiY31KlUoBMd6qENBuI18xQfdU/8JcoKNkn5Z4Ho7KYm4IfctEW
vURP2Ogiv/spKaIdq05EQX7EYXUhzos1UosuF4TZ7dZo+08pbKb7V4FXfh+gEXOO
11AlZDlrSgYdunsawi1p4REtfNxPCLuUkhnSbpUxlVJJwUfwhe8oa4gq4hIxDjSb
ULCC5t22mzyd/Lw57PDNqetcUDxns+SyakKFHdCcB5yBdbibc/g7R1xtzMNp7Wy+
uMIdWVLqNH7HehVmEBGNxxiH+Gr0B5eTs5NugEWlr/X0BCzsIQaSgc4Y7uKejXu/
jA==
-----END CERTIFICATE-----
