Certificate:
    Data:
        Version: 3 (0x2)
        Serial Number: 4098 (0x1002)
    Signature Algorithm: sha256WithRSAEncryption
        Issuer: C=FR, ST=IDF, L=Paris, O=Local NODE-OPCUA Certificate Authority, CN=NodeOPCUA-CA
        Validity
            Not Before: Aug 28 11:14:05 2017 GMT
            Not After : Aug 28 11:14:05 2018 GMT
        Subject: C=FR, O=NodeOPCUA, CN=NodeOPCUA
        Subject Public Key Info:
            Public Key Algorithm: rsaEncryption
                Public-Key: (2048 bit)
                Modulus:
                    00:ce:bf:bf:b0:5d:f6:77:9d:47:f1:9c:d2:42:a9:
                    00:3a:c2:f4:06:8f:5f:19:4b:db:7e:f6:10:0a:20:
                    bf:fd:94:28:6f:af:39:b7:26:67:0f:f9:2e:7b:60:
                    31:59:b8:f1:95:c7:45:14:4f:8c:a2:5a:83:0e:3c:
                    7a:91:4d:e3:a4:af:d9:3f:a7:44:b8:25:af:17:5c:
                    ff:ac:6b:d9:c3:cf:70:67:09:fc:3b:dd:c7:10:00:
                    fb:a0:89:9e:41:1a:ea:bb:ce:ac:89:44:72:15:0e:
                    1a:e3:6d:a4:13:62:e2:65:10:36:a5:11:1f:df:92:
                    83:b6:4a:9d:cb:3a:2e:68:9a:f2:03:12:1c:a0:53:
                    de:f6:2d:7e:fb:13:df:40:63:89:40:c2:a0:8c:a9:
                    9e:29:47:01:da:d1:f0:ab:5a:d0:31:2e:69:80:8b:
                    c6:aa:b5:f1:68:57:16:2f:2d:12:0b:34:e9:b3:a9:
                    05:51:1a:f4:14:b7:a3:8e:3c:cf:de:f0:6a:7c:dc:
                    98:34:5b:12:08:7b:42:ac:cf:ed:6b:65:b8:a5:76:
                    75:15:19:03:7b:31:b7:6d:98:34:96:43:34:c2:2d:
                    88:d7:5a:37:6f:a1:3e:a9:e1:cd:00:7a:17:6c:05:
                    a3:1c:c1:bf:88:8b:57:dd:78:52:3e:55:69:82:f9:
                    01:2b
                Exponent: 65537 (0x10001)
        X509v3 extensions:
            X509v3 Basic Constraints: critical
                CA:FALSE
            X509v3 Subject Key Identifier: 
                F1:D6:AA:16:00:DF:C0:BB:7E:1B:2B:AF:42:31:08:6A:66:25:75:60
            X509v3 Authority Key Identifier: 
                keyid:76:2A:71:9E:BC:6F:90:D6:D8:9A:DD:14:DE:DC:7B:D2:9C:55:C3:24
                DirName:/C=FR/ST=IDF/L=Paris/O=Local NODE-OPCUA Certificate Authority/CN=NodeOPCUA-CA
                serial:F9:A7:8A:6B:15:59:CE:15

            X509v3 Subject Alternative Name: 
                URI:urn:NB5DSCR503191NB:NodeOPCUA-Client, DNS:localhost, DNS:NB5DSCR503191NB
            Netscape Comment: 
                OpenSSL Generated Certificate
            X509v3 Key Usage: critical
                Digital Signature, Non Repudiation, Key Encipherment, Data Encipherment, Key Agreement, Certificate Sign
            X509v3 Extended Key Usage: critical
                TLS Web Server Authentication, TLS Web Client Authentication
    Signature Algorithm: sha256WithRSAEncryption
         14:59:06:30:2c:76:83:be:9e:c3:23:ac:8f:fc:fb:c3:71:97:
         68:40:9f:3c:e3:83:d2:a1:ff:4e:59:24:91:ea:85:5c:24:a5:
         d4:21:77:a1:21:9e:87:49:24:08:27:cb:8a:e9:dc:48:71:27:
         39:fd:6b:81:24:31:e3:c5:68:9e:c6:7e:82:ba:08:38:78:0e:
         bd:53:18:16:2d:5c:d2:45:0f:11:42:f6:8f:0e:ef:6d:b2:9a:
         09:a0:1f:a3:7f:31:03:9a:a3:2f:90:14:ee:43:71:e8:fb:5d:
         31:df:ba:c4:47:d8:49:52:9e:e6:c5:b7:e6:7b:d3:78:bc:db:
         c9:1b:3d:e1:a6:d0:b0:f9:fe:03:c8:8b:47:17:7a:33:9e:07:
         ae:b3:24:63:b4:31:e9:09:47:04:de:be:77:d6:ed:21:ba:b6:
         ed:f5:cb:10:cf:fe:4f:16:86:ba:6a:72:5b:9d:d3:b9:f0:40:
         dd:f2:ee:62:22:10:28:96:38:36:c2:05:7c:73:18:fb:47:4a:
         0a:2e:ba:3f:d7:42:1c:1b:5f:ab:8e:fe:fa:af:85:71:d9:0a:
         7a:0a:b6:37:a2:d3:fe:03:43:97:4c:c7:c2:fe:ad:27:fe:00:
         54:9e:18:be:98:bf:4f:47:bc:9b:0e:ad:6c:36:b4:a4:86:57:
         d3:22:ae:14
-----BEGIN CERTIFICATE-----
MIIEsDCCA5igAwIBAgICEAIwDQYJKoZIhvcNAQELBQAwczELMAkGA1UEBhMCRlIx
DDAKBgNVBAgTA0lERjEOMAwGA1UEBxMFUGFyaXMxLzAtBgNVBAoTJkxvY2FsIE5P
REUtT1BDVUEgQ2VydGlmaWNhdGUgQXV0aG9yaXR5MRUwEwYDVQQDEwxOb2RlT1BD
VUEtQ0EwIhgPMjAxNzA4MjgxMTE0MDVaGA8yMDE4MDgyODExMTQwNVowNTELMAkG
A1UEBhMCRlIxEjAQBgNVBAoMCU5vZGVPUENVQTESMBAGA1UEAwwJTm9kZU9QQ1VB
MIIBIjANBgkqhkiG9w0BAQEFAAOCAQ8AMIIBCgKCAQEAzr+/sF32d51H8ZzSQqkA
OsL0Bo9fGUvbfvYQCiC//ZQob685tyZnD/kue2AxWbjxlcdFFE+MolqDDjx6kU3j
pK/ZP6dEuCWvF1z/rGvZw89wZwn8O93HEAD7oImeQRrqu86siURyFQ4a422kE2Li
ZRA2pREf35KDtkqdyzouaJryAxIcoFPe9i1++xPfQGOJQMKgjKmeKUcB2tHwq1rQ
MS5pgIvGqrXxaFcWLy0SCzTps6kFURr0FLejjjzP3vBqfNyYNFsSCHtCrM/ta2W4
pXZ1FRkDezG3bZg0lkM0wi2I11o3b6E+qeHNAHoXbAWjHMG/iItX3XhSPlVpgvkB
KwIDAQABo4IBhjCCAYIwDAYDVR0TAQH/BAIwADAdBgNVHQ4EFgQU8daqFgDfwLt+
GyuvQjEIamYldWAwgaUGA1UdIwSBnTCBmoAUdipxnrxvkNbYmt0U3tx70pxVwySh
d6R1MHMxCzAJBgNVBAYTAkZSMQwwCgYDVQQIEwNJREYxDjAMBgNVBAcTBVBhcmlz
MS8wLQYDVQQKEyZMb2NhbCBOT0RFLU9QQ1VBIENlcnRpZmljYXRlIEF1dGhvcml0
eTEVMBMGA1UEAxMMTm9kZU9QQ1VBLUNBggkA+aeKaxVZzhUwSwYDVR0RBEQwQoYk
dXJuOk5CNURTQ1I1MDMxOTFOQjpOb2RlT1BDVUEtQ2xpZW50gglsb2NhbGhvc3SC
D05CNURTQ1I1MDMxOTFOQjAsBglghkgBhvhCAQ0EHxYdT3BlblNTTCBHZW5lcmF0
ZWQgQ2VydGlmaWNhdGUwDgYDVR0PAQH/BAQDAgL8MCAGA1UdJQEB/wQWMBQGCCsG
AQUFBwMBBggrBgEFBQcDAjANBgkqhkiG9w0BAQsFAAOCAQEAFFkGMCx2g76ewyOs
j/z7w3GXaECfPOOD0qH/TlkkkeqFXCSl1CF3oSGeh0kkCCfLiuncSHEnOf1rgSQx
48VonsZ+groIOHgOvVMYFi1c0kUPEUL2jw7vbbKaCaAfo38xA5qjL5AU7kNx6Ptd
Md+6xEfYSVKe5sW35nvTeLzbyRs94abQsPn+A8iLRxd6M54HrrMkY7Qx6QlHBN6+
d9btIbq27fXLEM/+TxaGumpyW53TufBA3fLuYiIQKJY4NsIFfHMY+0dKCi66P9dC
HBtfq47++q+FcdkKegq2N6LT/gNDl0zHwv6tJ/4AVJ4Yvpi/T0e8mw6tbDa0pIZX
0yKuFA==
-----END CERTIFICATE-----
-----BEGIN CERTIFICATE-----
MIIE3TCCA8WgAwIBAgIJAPmnimsVWc4VMA0GCSqGSIb3DQEBCwUAMHMxCzAJBgNV
BAYTAkZSMQwwCgYDVQQIEwNJREYxDjAMBgNVBAcTBVBhcmlzMS8wLQYDVQQKEyZM
b2NhbCBOT0RFLU9QQ1VBIENlcnRpZmljYXRlIEF1dGhvcml0eTEVMBMGA1UEAxMM
Tm9kZU9QQ1VBLUNBMB4XDTE3MDgyOTExMTQxMVoXDTI3MDgyNzExMTQxMVowczEL
MAkGA1UEBhMCRlIxDDAKBgNVBAgTA0lERjEOMAwGA1UEBxMFUGFyaXMxLzAtBgNV
BAoTJkxvY2FsIE5PREUtT1BDVUEgQ2VydGlmaWNhdGUgQXV0aG9yaXR5MRUwEwYD
VQQDEwxOb2RlT1BDVUEtQ0EwggEiMA0GCSqGSIb3DQEBAQUAA4IBDwAwggEKAoIB
AQCruHUuOjcrJKw+ykH8xh7Py0c7WM3Wzdfe0vpXJgVBBLiHVt1Hlwd/OS54FE8T
cjUGTTGGF0O7rdLkzQaW6SmmbwMUaovsaMRjiWtZgoPdN56UydUYQ9FYynNVcVNC
sI0t9yKUh++No1bJoa0BUtL6/Z/miGCJ4sSZNY29NA0WQaC1UmGJ6Sac6w93/8wy
ON7VtJuooOvqSRp7hbucq34KODDR+ZvOM8F8hwO7UfpWutrxGkheiQiX3kbByu7c
/IFnza3IicZhcxiARVtbypWpGqNZKbM5u3EugC687Bv533JRJ3zn3zRbXfb3L/NF
c3biMa27xUx8t9NicgwCefnxAgMBAAGjggFyMIIBbjAdBgNVHQ4EFgQUdipxnrxv
kNbYmt0U3tx70pxVwyQwgaUGA1UdIwSBnTCBmoAUdipxnrxvkNbYmt0U3tx70pxV
wyShd6R1MHMxCzAJBgNVBAYTAkZSMQwwCgYDVQQIEwNJREYxDjAMBgNVBAcTBVBh
cmlzMS8wLQYDVQQKEyZMb2NhbCBOT0RFLU9QQ1VBIENlcnRpZmljYXRlIEF1dGhv
cml0eTEVMBMGA1UEAxMMTm9kZU9QQ1VBLUNBggkA+aeKaxVZzhUwDAYDVR0TBAUw
AwEB/zAOBgNVHQ8BAf8EBAMCAQYwVwYJYIZIAYb4QgENBEoWSENBIENlcnRpZmlj
YXRlIGdlbmVyYXRlZCBieSBOb2RlLU9QQ1VBIENlcnRpZmljYXRlIHV0aWxpdHkg
dXNpbmcgb3BlbnNzbDAuBgNVHR8EJzAlMCOgIaAfhh1odHRwOi8vbG9jYWxob3N0
Ojg5MDAvY3JsLnBlbTANBgkqhkiG9w0BAQsFAAOCAQEAovaCuCWSYZtb5BW8oABL
n3iaHj8nQQM7exs4uJ0pK5PwOxv63Hv3bCuraxF0u6gA3VODv/NbapxGrlAyR4e/
RflYbTKb1HQxjIxtS3geRBBdrg0Fz9BEONag1s/Ou/3uWarZoUVKZ7UI1ZrDSzEI
Z+1P9MmtyqKR26AySB/M9LUTEPbxtqRaltnkCUpR4ptQFAS53Ng+34BeVzVf9tAQ
TbHAqJT6y6domjviM0ggat2MsDhlgk7xqtNGzi4+JN8J7u1MTLcxcH0qzjF/2L99
l1VVRqF4YirJfwfDlIQzyBSVYqJYCHyqeq9eRl5sa8ehPsLItqpZL8LCk7BxQM8f
sA==
-----END CERTIFICATE-----
