Certificate Request:
    Data:
        Version: 0 (0x0)
        Subject: C=FR, O=NodeOPCUA, CN=NodeOPCUA
        Subject Public Key Info:
            Public Key Algorithm: rsaEncryption
                Public-Key: (2048 bit)
                Modulus:
                    00:dd:55:05:d2:e9:f1:46:c4:36:e1:46:23:87:6c:
                    bc:78:1d:7f:b2:c7:cc:2e:43:c5:96:78:0e:b7:dd:
                    ae:b0:12:00:37:ad:73:ce:61:df:45:ad:ba:b9:49:
                    70:72:a0:c1:c4:70:98:c5:3a:9f:ce:f1:08:91:38:
                    a0:6e:5b:17:78:b6:75:38:02:7f:84:ae:b9:69:9f:
                    19:2d:a1:50:7d:d1:79:0d:2f:72:94:40:e1:cb:72:
                    4c:3e:71:33:8a:b9:fa:56:85:57:5a:cb:09:85:52:
                    ed:54:a5:0a:4c:09:ca:ec:d1:ef:aa:2a:82:38:ca:
                    78:62:85:60:c9:82:82:4c:6b:f9:b1:3d:c2:02:98:
                    44:9e:5b:9d:f0:d5:9e:64:34:4c:ab:c5:38:fb:96:
                    33:70:f2:bb:ba:df:8c:d8:2a:7d:2c:94:70:c9:fc:
                    18:d6:17:7c:2d:41:1b:28:5c:70:6f:03:78:ff:1d:
                    24:d4:06:f8:4f:b5:bd:e8:ee:2a:ed:50:2a:a4:05:
                    14:58:68:ea:09:28:e4:aa:06:9f:d4:69:5a:00:31:
                    83:a4:f2:09:f9:de:dd:d2:9f:86:8e:61:f1:fe:b6:
                    7d:3a:cf:ce:3a:fb:fb:ef:02:b5:94:42:f2:13:a7:
                    36:be:20:63:65:a8:de:e2:1b:dc:fa:27:c5:04:c4:
                    b7:07
                Exponent: 65537 (0x10001)
        Attributes:
        Requested Extensions:
            X509v3 Basic Constraints: 
                CA:FALSE
            X509v3 Key Usage: critical
                Certificate Sign, CRL Sign
            X509v3 Subject Alternative Name: 
                URI:undefined
    Signature Algorithm: sha256WithRSAEncryption
         73:91:ae:d7:66:62:ed:a9:f1:54:9f:4a:60:56:2e:f2:db:e1:
         48:12:f1:9d:b6:d7:bb:5e:62:3b:1b:27:65:2e:7e:e9:46:07:
         cd:59:2a:59:a0:90:66:4a:de:c6:e7:db:1f:cc:bb:cc:59:3e:
         35:5f:9d:61:a4:18:de:c4:a6:80:0a:d1:ce:f9:46:b2:b1:c5:
         c7:64:64:30:d9:8a:2b:17:e6:fd:0e:db:be:a8:f3:d2:13:25:
         cf:ea:95:2e:a3:b5:5c:26:05:9a:cd:d4:9a:a0:9b:e0:ad:9f:
         39:12:72:18:9f:37:15:b1:56:26:27:ca:0f:75:b6:af:25:6e:
         71:08:b8:43:0f:77:55:c3:ec:3f:0c:db:4c:3a:80:ae:a1:b7:
         49:29:41:7a:4c:16:15:8a:96:30:80:0f:b0:ff:6f:fe:46:6c:
         c0:8e:4c:d6:9b:33:46:21:00:e9:25:f2:38:90:22:d5:e6:7e:
         a8:0b:0a:93:ba:56:05:96:9e:bc:1e:96:b5:01:ba:e1:ee:69:
         e6:b3:18:5e:63:36:48:8a:32:6b:8a:1f:d1:88:70:d8:51:be:
         19:78:b5:19:36:88:0e:19:ce:82:64:1d:ff:28:81:93:92:ef:
         67:93:d6:5b:d0:b9:83:01:2e:d5:7b:41:4e:1d:20:cd:fa:6d:
         83:31:02:b7
-----BEGIN CERTIFICATE REQUEST-----
MIICvDCCAaQCAQAwNTELMAkGA1UEBhMCRlIxEjAQBgNVBAoMCU5vZGVPUENVQTES
MBAGA1UEAwwJTm9kZU9QQ1VBMIIBIjANBgkqhkiG9w0BAQEFAAOCAQ8AMIIBCgKC
AQEA3VUF0unxRsQ24UYjh2y8eB1/ssfMLkPFlngOt92usBIAN61zzmHfRa26uUlw
cqDBxHCYxTqfzvEIkTigblsXeLZ1OAJ/hK65aZ8ZLaFQfdF5DS9ylEDhy3JMPnEz
irn6VoVXWssJhVLtVKUKTAnK7NHvqiqCOMp4YoVgyYKCTGv5sT3CAphEnlud8NWe
ZDRMq8U4+5YzcPK7ut+M2Cp9LJRwyfwY1hd8LUEbKFxwbwN4/x0k1Ab4T7W96O4q
7VAqpAUUWGjqCSjkqgaf1GlaADGDpPIJ+d7d0p+GjmHx/rZ9Os/OOvv77wK1lELy
E6c2viBjZaje4hvc+ifFBMS3BwIDAQABoEIwQAYJKoZIhvcNAQkOMTMwMTAJBgNV
HRMEAjAAMA4GA1UdDwEB/wQEAwIBBjAUBgNVHREEDTALhgl1bmRlZmluZWQwDQYJ
KoZIhvcNAQELBQADggEBAHORrtdmYu2p8VSfSmBWLvLb4UgS8Z2217teYjsbJ2Uu
fulGB81ZKlmgkGZK3sbn2x/Mu8xZPjVfnWGkGN7EpoAK0c75RrKxxcdkZDDZiisX
5v0O276o89ITJc/qlS6jtVwmBZrN1Jqgm+CtnzkSchifNxWxViYnyg91tq8lbnEI
uEMPd1XD7D8M20w6gK6ht0kpQXpMFhWKljCAD7D/b/5GbMCOTNabM0YhAOkl8jiQ
ItXmfqgLCpO6VgWWnrwelrUBuuHuaeazGF5jNkiKMmuKH9GIcNhRvhl4tRk2iA4Z
zoJkHf8ogZOS72eT1lvQuYMBLtV7QU4dIM36bYMxArc=
-----END CERTIFICATE REQUEST-----
