Certificate:
    Data:
        Version: 3 (0x2)
        Serial Number: 4098 (0x1002)
    Signature Algorithm: sha256WithRSAEncryption
        Issuer: C=FR, ST=IDF, L=Paris, O=Local NODE-OPCUA Certificate Authority, CN=NodeOPCUA-CA
        Validity
            Not Before: Sep  3 10:43:33 2018 GMT
            Not After : Sep  3 10:43:33 2019 GMT
        Subject: C=FR, O=NodeOPCUA, CN=NodeOPCUA
        Subject Public Key Info:
            Public Key Algorithm: rsaEncryption
                Public-Key: (2048 bit)
                Modulus:
                    00:dd:55:05:d2:e9:f1:46:c4:36:e1:46:23:87:6c:
                    bc:78:1d:7f:b2:c7:cc:2e:43:c5:96:78:0e:b7:dd:
                    ae:b0:12:00:37:ad:73:ce:61:df:45:ad:ba:b9:49:
                    70:72:a0:c1:c4:70:98:c5:3a:9f:ce:f1:08:91:38:
                    a0:6e:5b:17:78:b6:75:38:02:7f:84:ae:b9:69:9f:
                    19:2d:a1:50:7d:d1:79:0d:2f:72:94:40:e1:cb:72:
                    4c:3e:71:33:8a:b9:fa:56:85:57:5a:cb:09:85:52:
                    ed:54:a5:0a:4c:09:ca:ec:d1:ef:aa:2a:82:38:ca:
                    78:62:85:60:c9:82:82:4c:6b:f9:b1:3d:c2:02:98:
                    44:9e:5b:9d:f0:d5:9e:64:34:4c:ab:c5:38:fb:96:
                    33:70:f2:bb:ba:df:8c:d8:2a:7d:2c:94:70:c9:fc:
                    18:d6:17:7c:2d:41:1b:28:5c:70:6f:03:78:ff:1d:
                    24:d4:06:f8:4f:b5:bd:e8:ee:2a:ed:50:2a:a4:05:
                    14:58:68:ea:09:28:e4:aa:06:9f:d4:69:5a:00:31:
                    83:a4:f2:09:f9:de:dd:d2:9f:86:8e:61:f1:fe:b6:
                    7d:3a:cf:ce:3a:fb:fb:ef:02:b5:94:42:f2:13:a7:
                    36:be:20:63:65:a8:de:e2:1b:dc:fa:27:c5:04:c4:
                    b7:07
                Exponent: 65537 (0x10001)
        X509v3 extensions:
            X509v3 Basic Constraints: critical
                CA:FALSE
            X509v3 Subject Key Identifier: 
                28:99:21:34:48:68:41:25:5A:CC:B7:56:BA:45:06:1D:BA:CF:80:31
            X509v3 Authority Key Identifier: 
                keyid:86:4E:30:D2:2D:4E:5C:90:F0:21:CA:04:E0:3D:85:44:1D:07:2A:15
                DirName:/C=FR/ST=IDF/L=Paris/O=Local NODE-OPCUA Certificate Authority/CN=NodeOPCUA-CA
                serial:D3:4D:17:85:65:28:E7:25

            X509v3 Subject Alternative Name: 
                URI:urn:NB5DSCR503191NB:NodeOPCUA-Client, DNS:localhost, DNS:NB5DSCR503191NB
            Netscape Comment: 
                OpenSSL Generated Certificate
            X509v3 Key Usage: critical
                Digital Signature, Non Repudiation, Key Encipherment, Data Encipherment, Key Agreement, Certificate Sign
            X509v3 Extended Key Usage: critical
                TLS Web Server Authentication, TLS Web Client Authentication
    Signature Algorithm: sha256WithRSAEncryption
         a9:b7:4a:70:c6:bb:d8:53:7a:16:44:3a:45:d6:d0:9d:eb:99:
         86:f0:36:1e:d1:47:55:ab:d1:bc:13:d2:4d:b1:63:72:a9:a8:
         bc:ba:b3:73:9e:16:42:73:4c:04:d9:7c:4b:4c:6d:5f:87:2a:
         00:1e:fb:fa:fc:64:4d:b2:00:58:71:95:93:f5:0b:3e:8b:e4:
         12:79:6c:1b:86:71:7b:aa:4a:c4:24:16:06:03:0e:cd:44:4a:
         c4:65:41:b1:09:e1:d8:6c:15:b0:55:e4:5c:33:68:76:c9:15:
         1c:f4:d9:14:98:9e:86:81:82:7e:43:00:50:21:92:2f:26:48:
         1d:19:91:b5:bd:e9:c5:5a:71:db:ed:d6:76:74:15:8c:16:61:
         2f:27:28:7b:10:ed:98:18:b0:ad:75:30:3b:f8:d9:0b:49:36:
         c3:23:1b:51:d1:c7:e7:5c:b6:df:a0:54:2e:dc:f3:8d:49:e8:
         48:4c:9c:60:06:c9:b5:a1:84:43:75:f8:58:6d:d9:dd:d0:24:
         3e:2a:d2:c1:09:17:a2:c4:b6:6d:3e:6a:ec:cb:ef:9e:2b:79:
         5d:40:24:94:8c:b5:d6:73:76:5b:fd:59:5f:e7:92:66:3b:53:
         1b:2b:bf:49:92:e5:d8:99:b2:eb:cf:ab:fb:4c:a3:9f:2f:b8:
         44:99:0e:a0
-----BEGIN CERTIFICATE-----
MIIEsDCCA5igAwIBAgICEAIwDQYJKoZIhvcNAQELBQAwczELMAkGA1UEBhMCRlIx
DDAKBgNVBAgTA0lERjEOMAwGA1UEBxMFUGFyaXMxLzAtBgNVBAoTJkxvY2FsIE5P
REUtT1BDVUEgQ2VydGlmaWNhdGUgQXV0aG9yaXR5MRUwEwYDVQQDEwxOb2RlT1BD
VUEtQ0EwIhgPMjAxODA5MDMxMDQzMzNaGA8yMDE5MDkwMzEwNDMzM1owNTELMAkG
A1UEBhMCRlIxEjAQBgNVBAoMCU5vZGVPUENVQTESMBAGA1UEAwwJTm9kZU9QQ1VB
MIIBIjANBgkqhkiG9w0BAQEFAAOCAQ8AMIIBCgKCAQEA3VUF0unxRsQ24UYjh2y8
eB1/ssfMLkPFlngOt92usBIAN61zzmHfRa26uUlwcqDBxHCYxTqfzvEIkTigblsX
eLZ1OAJ/hK65aZ8ZLaFQfdF5DS9ylEDhy3JMPnEzirn6VoVXWssJhVLtVKUKTAnK
7NHvqiqCOMp4YoVgyYKCTGv5sT3CAphEnlud8NWeZDRMq8U4+5YzcPK7ut+M2Cp9
LJRwyfwY1hd8LUEbKFxwbwN4/x0k1Ab4T7W96O4q7VAqpAUUWGjqCSjkqgaf1Gla
ADGDpPIJ+d7d0p+GjmHx/rZ9Os/OOvv77wK1lELyE6c2viBjZaje4hvc+ifFBMS3
BwIDAQABo4IBhjCCAYIwDAYDVR0TAQH/BAIwADAdBgNVHQ4EFgQUKJkhNEhoQSVa
zLdWukUGHbrPgDEwgaUGA1UdIwSBnTCBmoAUhk4w0i1OXJDwIcoE4D2FRB0HKhWh
d6R1MHMxCzAJBgNVBAYTAkZSMQwwCgYDVQQIEwNJREYxDjAMBgNVBAcTBVBhcmlz
MS8wLQYDVQQKEyZMb2NhbCBOT0RFLU9QQ1VBIENlcnRpZmljYXRlIEF1dGhvcml0
eTEVMBMGA1UEAxMMTm9kZU9QQ1VBLUNBggkA000XhWUo5yUwSwYDVR0RBEQwQoYk
dXJuOk5CNURTQ1I1MDMxOTFOQjpOb2RlT1BDVUEtQ2xpZW50gglsb2NhbGhvc3SC
D05CNURTQ1I1MDMxOTFOQjAsBglghkgBhvhCAQ0EHxYdT3BlblNTTCBHZW5lcmF0
ZWQgQ2VydGlmaWNhdGUwDgYDVR0PAQH/BAQDAgL8MCAGA1UdJQEB/wQWMBQGCCsG
AQUFBwMBBggrBgEFBQcDAjANBgkqhkiG9w0BAQsFAAOCAQEAqbdKcMa72FN6FkQ6
RdbQneuZhvA2HtFHVavRvBPSTbFjcqmovLqzc54WQnNMBNl8S0xtX4cqAB77+vxk
TbIAWHGVk/ULPovkEnlsG4Zxe6pKxCQWBgMOzURKxGVBsQnh2GwVsFXkXDNodskV
HPTZFJiehoGCfkMAUCGSLyZIHRmRtb3pxVpx2+3WdnQVjBZhLycoexDtmBiwrXUw
O/jZC0k2wyMbUdHH51y236BULtzzjUnoSEycYAbJtaGEQ3X4WG3Z3dAkPirSwQkX
osS2bT5q7Mvvnit5XUAklIy11nN2W/1ZX+eSZjtTGyu/SZLl2Jmy68+r+0yjny+4
RJkOoA==
-----END CERTIFICATE-----
-----BEGIN CERTIFICATE-----
MIIE3TCCA8WgAwIBAgIJANNNF4VlKOclMA0GCSqGSIb3DQEBCwUAMHMxCzAJBgNV
BAYTAkZSMQwwCgYDVQQIEwNJREYxDjAMBgNVBAcTBVBhcmlzMS8wLQYDVQQKEyZM
b2NhbCBOT0RFLU9QQ1VBIENlcnRpZmljYXRlIEF1dGhvcml0eTEVMBMGA1UEAxMM
Tm9kZU9QQ1VBLUNBMB4XDTE4MDkwNDEwNDMzNFoXDTI4MDkwMTEwNDMzNFowczEL
MAkGA1UEBhMCRlIxDDAKBgNVBAgTA0lERjEOMAwGA1UEBxMFUGFyaXMxLzAtBgNV
BAoTJkxvY2FsIE5PREUtT1BDVUEgQ2VydGlmaWNhdGUgQXV0aG9yaXR5MRUwEwYD
VQQDEwxOb2RlT1BDVUEtQ0EwggEiMA0GCSqGSIb3DQEBAQUAA4IBDwAwggEKAoIB
AQCvYUzijDNz77wTkCowT3+E4StzWetxBIGZbsaV2sMn8z+qKWqNS6jkFF28Us0J
dXQYChjkv+WKrjNXLNOJ8vByYwdKIStJaNXSPM7oepSJhO8WGHESi6qvEQhAC7fz
Rf/FsjJ6ebsceX1vtnCPrluB5HdgG6XSF/msJ9kBJi93ojfeiWD9StsIhhnl1QwX
HwLL6kBxE58AiFHnsFb5sDKzE3B56USaMwPATm4n0zMyGHZ443XbtZ83I6NU161q
WsFEIr4jaM9A41ZwZAmbGKWkfE/v+zujiqSNAfhUhUIDwSRuBNX3YE96M+C3HoUv
TjWVGIc8+B5nTtQqQgx8tgldAgMBAAGjggFyMIIBbjAdBgNVHQ4EFgQUhk4w0i1O
XJDwIcoE4D2FRB0HKhUwgaUGA1UdIwSBnTCBmoAUhk4w0i1OXJDwIcoE4D2FRB0H
KhWhd6R1MHMxCzAJBgNVBAYTAkZSMQwwCgYDVQQIEwNJREYxDjAMBgNVBAcTBVBh
cmlzMS8wLQYDVQQKEyZMb2NhbCBOT0RFLU9QQ1VBIENlcnRpZmljYXRlIEF1dGhv
cml0eTEVMBMGA1UEAxMMTm9kZU9QQ1VBLUNBggkA000XhWUo5yUwDAYDVR0TBAUw
AwEB/zAOBgNVHQ8BAf8EBAMCAQYwVwYJYIZIAYb4QgENBEoWSENBIENlcnRpZmlj
YXRlIGdlbmVyYXRlZCBieSBOb2RlLU9QQ1VBIENlcnRpZmljYXRlIHV0aWxpdHkg
dXNpbmcgb3BlbnNzbDAuBgNVHR8EJzAlMCOgIaAfhh1odHRwOi8vbG9jYWxob3N0
Ojg5MDAvY3JsLnBlbTANBgkqhkiG9w0BAQsFAAOCAQEAR3YnhJgfXuL2u7BkL0RS
+3ZIqhrvVGEJ5LiY31KlUoBMd6qENBuI18xQfdU/8JcoKNkn5Z4Ho7KYm4IfctEW
vURP2Ogiv/spKaIdq05EQX7EYXUhzos1UosuF4TZ7dZo+08pbKb7V4FXfh+gEXOO
11AlZDlrSgYdunsawi1p4REtfNxPCLuUkhnSbpUxlVJJwUfwhe8oa4gq4hIxDjSb
ULCC5t22mzyd/Lw57PDNqetcUDxns+SyakKFHdCcB5yBdbibc/g7R1xtzMNp7Wy+
uMIdWVLqNH7HehVmEBGNxxiH+Gr0B5eTs5NugEWlr/X0BCzsIQaSgc4Y7uKejXu/
jA==
-----END CERTIFICATE-----
