Certificate Request:
    Data:
        Version: 0 (0x0)
        Subject: C=FR, O=NodeOPCUA, CN=NodeOPCUA
        Subject Public Key Info:
            Public Key Algorithm: rsaEncryption
                Public-Key: (2048 bit)
                Modulus:
                    00:ce:bf:bf:b0:5d:f6:77:9d:47:f1:9c:d2:42:a9:
                    00:3a:c2:f4:06:8f:5f:19:4b:db:7e:f6:10:0a:20:
                    bf:fd:94:28:6f:af:39:b7:26:67:0f:f9:2e:7b:60:
                    31:59:b8:f1:95:c7:45:14:4f:8c:a2:5a:83:0e:3c:
                    7a:91:4d:e3:a4:af:d9:3f:a7:44:b8:25:af:17:5c:
                    ff:ac:6b:d9:c3:cf:70:67:09:fc:3b:dd:c7:10:00:
                    fb:a0:89:9e:41:1a:ea:bb:ce:ac:89:44:72:15:0e:
                    1a:e3:6d:a4:13:62:e2:65:10:36:a5:11:1f:df:92:
                    83:b6:4a:9d:cb:3a:2e:68:9a:f2:03:12:1c:a0:53:
                    de:f6:2d:7e:fb:13:df:40:63:89:40:c2:a0:8c:a9:
                    9e:29:47:01:da:d1:f0:ab:5a:d0:31:2e:69:80:8b:
                    c6:aa:b5:f1:68:57:16:2f:2d:12:0b:34:e9:b3:a9:
                    05:51:1a:f4:14:b7:a3:8e:3c:cf:de:f0:6a:7c:dc:
                    98:34:5b:12:08:7b:42:ac:cf:ed:6b:65:b8:a5:76:
                    75:15:19:03:7b:31:b7:6d:98:34:96:43:34:c2:2d:
                    88:d7:5a:37:6f:a1:3e:a9:e1:cd:00:7a:17:6c:05:
                    a3:1c:c1:bf:88:8b:57:dd:78:52:3e:55:69:82:f9:
                    01:2b
                Exponent: 65537 (0x10001)
        Attributes:
        Requested Extensions:
            X509v3 Basic Constraints: 
                CA:FALSE
            X509v3 Key Usage: critical
                Certificate Sign, CRL Sign
            X509v3 Subject Alternative Name: 
                URI:undefined
    Signature Algorithm: sha256WithRSAEncryption
         8c:15:75:cd:fc:73:69:2e:03:13:2f:45:21:87:04:16:fb:9c:
         e7:16:44:5c:78:01:e3:fc:8f:dc:92:c8:8e:3d:3e:85:ea:99:
         89:3f:2f:75:53:7d:f3:82:dc:fa:3e:6e:1e:b6:94:d3:17:59:
         ef:37:07:08:84:54:0e:15:16:bb:71:ae:b4:ef:d6:e9:3e:db:
         32:5b:67:9b:59:b5:8b:76:87:18:83:ca:6b:48:c6:cd:24:95:
         16:35:52:86:14:25:e3:ac:07:8d:b2:74:29:98:65:3b:a5:77:
         44:f1:99:d8:8c:70:25:5c:c7:c0:4f:de:c9:d7:b8:0b:75:af:
         20:0c:38:e4:75:56:bc:08:53:fe:bd:29:af:fd:94:4c:c8:5d:
         e1:ed:cd:3f:76:53:28:7f:a4:ef:25:ce:db:06:9d:33:6e:91:
         bc:c7:7d:4f:fa:7e:3f:f9:94:a5:cc:cb:b4:71:be:99:55:82:
         d1:44:53:35:df:23:87:e5:21:41:ab:9a:b4:ba:29:63:b6:07:
         63:ef:cf:18:0a:35:f8:2a:a1:94:ea:b6:94:3f:d0:4c:ca:9f:
         e9:36:47:04:d9:b1:5f:2f:89:1b:af:5a:6d:1b:b8:45:bd:96:
         94:a2:49:b9:e9:e2:56:9e:a5:4c:ea:27:25:51:ae:05:8d:e2:
         e1:2b:7b:b0
-----BEGIN CERTIFICATE REQUEST-----
MIICvDCCAaQCAQAwNTELMAkGA1UEBhMCRlIxEjAQBgNVBAoMCU5vZGVPUENVQTES
MBAGA1UEAwwJTm9kZU9QQ1VBMIIBIjANBgkqhkiG9w0BAQEFAAOCAQ8AMIIBCgKC
AQEAzr+/sF32d51H8ZzSQqkAOsL0Bo9fGUvbfvYQCiC//ZQob685tyZnD/kue2Ax
WbjxlcdFFE+MolqDDjx6kU3jpK/ZP6dEuCWvF1z/rGvZw89wZwn8O93HEAD7oIme
QRrqu86siURyFQ4a422kE2LiZRA2pREf35KDtkqdyzouaJryAxIcoFPe9i1++xPf
QGOJQMKgjKmeKUcB2tHwq1rQMS5pgIvGqrXxaFcWLy0SCzTps6kFURr0FLejjjzP
3vBqfNyYNFsSCHtCrM/ta2W4pXZ1FRkDezG3bZg0lkM0wi2I11o3b6E+qeHNAHoX
bAWjHMG/iItX3XhSPlVpgvkBKwIDAQABoEIwQAYJKoZIhvcNAQkOMTMwMTAJBgNV
HRMEAjAAMA4GA1UdDwEB/wQEAwIBBjAUBgNVHREEDTALhgl1bmRlZmluZWQwDQYJ
KoZIhvcNAQELBQADggEBAIwVdc38c2kuAxMvRSGHBBb7nOcWRFx4AeP8j9ySyI49
PoXqmYk/L3VTffOC3Po+bh62lNMXWe83BwiEVA4VFrtxrrTv1uk+2zJbZ5tZtYt2
hxiDymtIxs0klRY1UoYUJeOsB42ydCmYZTuld0TxmdiMcCVcx8BP3snXuAt1ryAM
OOR1VrwIU/69Ka/9lEzIXeHtzT92Uyh/pO8lztsGnTNukbzHfU/6fj/5lKXMy7Rx
vplVgtFEUzXfI4flIUGrmrS6KWO2B2PvzxgKNfgqoZTqtpQ/0EzKn+k2RwTZsV8v
iRuvWm0buEW9lpSiSbnp4laepUzqJyVRrgWN4uEre7A=
-----END CERTIFICATE REQUEST-----
