Certificate Request:
    Data:
        Version: 0 (0x0)
        Subject: C=FR, O=NodeOPCUA, CN=NodeOPCUA
        Subject Public Key Info:
            Public Key Algorithm: rsaEncryption
                Public-Key: (1024 bit)
                Modulus:
                    00:f7:a2:92:31:36:cf:44:70:e9:de:f3:49:49:5e:
                    cc:5f:08:22:82:78:f2:e4:91:5a:04:04:09:4f:2e:
                    0a:cf:88:c2:9f:bf:40:63:c5:7e:7f:0f:c4:fa:2c:
                    0c:81:83:4c:38:c9:03:34:94:9e:ba:4e:ad:56:8d:
                    d4:49:c0:20:93:21:14:45:2d:75:dd:20:9e:9d:5b:
                    1f:1a:d8:4c:a2:2a:a4:b6:f9:35:a4:93:4c:25:f9:
                    1a:9c:21:c5:71:27:ac:be:19:1b:56:5f:da:ea:b2:
                    6a:72:7d:b3:5b:e5:bd:52:01:36:26:5a:ae:c1:b1:
                    f0:08:22:51:46:ce:d4:1e:61
                Exponent: 65537 (0x10001)
        Attributes:
        Requested Extensions:
            X509v3 Basic Constraints: 
                CA:FALSE
            X509v3 Key Usage: critical
                Certificate Sign, CRL Sign
            X509v3 Subject Alternative Name: 
                URI:undefined
    Signature Algorithm: sha256WithRSAEncryption
         f3:aa:b6:16:80:7c:c0:2e:74:a4:98:9d:32:06:1b:f2:dd:58:
         46:00:78:57:31:01:22:d5:3f:fa:17:82:4e:7d:73:cd:2b:7e:
         35:fd:45:45:27:27:63:d1:20:9a:7a:5f:9b:2e:51:0a:3f:0f:
         e9:d9:18:6c:a4:04:e3:45:22:57:0a:ff:d5:f6:8e:65:7f:b1:
         a4:47:ed:81:ff:2a:58:fd:a3:fd:83:9e:55:34:ed:5c:2c:b2:
         5f:60:18:a3:b3:e5:aa:e2:ab:be:17:ca:97:a9:33:ef:86:23:
         05:c6:77:58:95:35:96:7e:89:84:8e:8c:da:7c:ea:03:b4:88:
         0e:f5
-----BEGIN CERTIFICATE REQUEST-----
MIIBtzCCASACAQAwNTELMAkGA1UEBhMCRlIxEjAQBgNVBAoMCU5vZGVPUENVQTES
MBAGA1UEAwwJTm9kZU9QQ1VBMIGfMA0GCSqGSIb3DQEBAQUAA4GNADCBiQKBgQD3
opIxNs9EcOne80lJXsxfCCKCePLkkVoEBAlPLgrPiMKfv0BjxX5/D8T6LAyBg0w4
yQM0lJ66Tq1WjdRJwCCTIRRFLXXdIJ6dWx8a2EyiKqS2+TWkk0wl+RqcIcVxJ6y+
GRtWX9rqsmpyfbNb5b1SATYmWq7BsfAIIlFGztQeYQIDAQABoEIwQAYJKoZIhvcN
AQkOMTMwMTAJBgNVHRMEAjAAMA4GA1UdDwEB/wQEAwIBBjAUBgNVHREEDTALhgl1
bmRlZmluZWQwDQYJKoZIhvcNAQELBQADgYEA86q2FoB8wC50pJidMgYb8t1YRgB4
VzEBItU/+heCTn1zzSt+Nf1FRScnY9Egmnpfmy5RCj8P6dkYbKQE40UiVwr/1faO
ZX+xpEftgf8qWP2j/YOeVTTtXCyyX2AYo7PlquKrvhfKl6kz74YjBcZ3WJU1ln6J
hI6M2nzqA7SIDvU=
-----END CERTIFICATE REQUEST-----
