Certificate Request:
    Data:
        Version: 0 (0x0)
        Subject: C=FR, O=NodeOPCUA, CN=NodeOPCUA
        Subject Public Key Info:
            Public Key Algorithm: rsaEncryption
                Public-Key: (1024 bit)
                Modulus:
                    00:d5:58:73:5c:34:85:9e:af:63:02:48:1f:83:ad:
                    2b:df:79:d4:09:a0:02:0d:ff:21:78:70:7d:6b:ba:
                    1a:59:e1:b0:d5:a5:ad:09:4c:65:71:00:b5:e4:7e:
                    34:27:a0:01:d3:1f:d6:7a:c9:0c:76:16:ac:39:e8:
                    99:34:8a:5b:da:c4:4c:82:b1:30:f7:9d:73:bc:1c:
                    64:b1:0c:48:14:95:70:a2:d2:12:22:f8:ab:29:ae:
                    69:de:cf:29:d7:20:3a:ca:9b:dc:11:3a:05:b9:8a:
                    55:48:44:51:dd:f0:79:a4:cc:a0:44:55:e2:9b:f3:
                    56:e2:f2:f1:8f:ee:94:93:4f
                Exponent: 65537 (0x10001)
        Attributes:
        Requested Extensions:
            X509v3 Basic Constraints: 
                CA:FALSE
            X509v3 Key Usage: critical
                Certificate Sign, CRL Sign
            X509v3 Subject Alternative Name: 
                URI:undefined
    Signature Algorithm: sha256WithRSAEncryption
         c4:6d:08:c5:6e:ab:2a:dc:1a:a5:58:6e:be:a4:33:37:4a:11:
         05:08:d6:54:de:3f:16:90:21:d0:dd:c6:86:10:07:29:88:dd:
         fc:8a:f5:01:f9:7c:9e:a1:e3:cf:8d:24:8e:93:37:ba:f5:21:
         48:d6:50:bb:b8:b1:c4:56:db:f2:7b:80:af:e5:4f:18:59:96:
         92:a7:1b:e3:8e:a5:d0:10:b4:86:db:7d:61:63:7b:5b:63:c1:
         c0:35:26:28:8d:5d:d2:4d:f0:bf:2a:72:02:eb:b0:b2:6e:ec:
         2a:25:2b:98:4d:ee:bb:dc:9c:07:4c:4e:6d:21:06:9e:7a:08:
         76:e3
-----BEGIN CERTIFICATE REQUEST-----
MIIBtzCCASACAQAwNTELMAkGA1UEBhMCRlIxEjAQBgNVBAoMCU5vZGVPUENVQTES
MBAGA1UEAwwJTm9kZU9QQ1VBMIGfMA0GCSqGSIb3DQEBAQUAA4GNADCBiQKBgQDV
WHNcNIWer2MCSB+DrSvfedQJoAIN/yF4cH1ruhpZ4bDVpa0JTGVxALXkfjQnoAHT
H9Z6yQx2Fqw56Jk0ilvaxEyCsTD3nXO8HGSxDEgUlXCi0hIi+KsprmnezynXIDrK
m9wROgW5ilVIRFHd8HmkzKBEVeKb81bi8vGP7pSTTwIDAQABoEIwQAYJKoZIhvcN
AQkOMTMwMTAJBgNVHRMEAjAAMA4GA1UdDwEB/wQEAwIBBjAUBgNVHREEDTALhgl1
bmRlZmluZWQwDQYJKoZIhvcNAQELBQADgYEAxG0IxW6rKtwapVhuvqQzN0oRBQjW
VN4/FpAh0N3GhhAHKYjd/Ir1Afl8nqHjz40kjpM3uvUhSNZQu7ixxFbb8nuAr+VP
GFmWkqcb446l0BC0htt9YWN7W2PBwDUmKI1d0k3wvypyAuuwsm7sKiUrmE3uu9yc
B0xObSEGnnoIduM=
-----END CERTIFICATE REQUEST-----
