Certificate:
    Data:
        Version: 3 (0x2)
        Serial Number: 4104 (0x1008)
    Signature Algorithm: sha256WithRSAEncryption
        Issuer: C=FR, ST=IDF, L=Paris, O=Local NODE-OPCUA Certificate Authority, CN=NodeOPCUA-CA
        Validity
            Not Before: Sep  3 10:43:33 2018 GMT
            Not After : Sep  3 10:43:33 2019 GMT
        Subject: C=FR, O=NodeOPCUA, CN=NodeOPCUA
        Subject Public Key Info:
            Public Key Algorithm: rsaEncryption
                Public-Key: (1024 bit)
                Modulus:
                    00:d5:58:73:5c:34:85:9e:af:63:02:48:1f:83:ad:
                    2b:df:79:d4:09:a0:02:0d:ff:21:78:70:7d:6b:ba:
                    1a:59:e1:b0:d5:a5:ad:09:4c:65:71:00:b5:e4:7e:
                    34:27:a0:01:d3:1f:d6:7a:c9:0c:76:16:ac:39:e8:
                    99:34:8a:5b:da:c4:4c:82:b1:30:f7:9d:73:bc:1c:
                    64:b1:0c:48:14:95:70:a2:d2:12:22:f8:ab:29:ae:
                    69:de:cf:29:d7:20:3a:ca:9b:dc:11:3a:05:b9:8a:
                    55:48:44:51:dd:f0:79:a4:cc:a0:44:55:e2:9b:f3:
                    56:e2:f2:f1:8f:ee:94:93:4f
                Exponent: 65537 (0x10001)
        X509v3 extensions:
            X509v3 Basic Constraints: critical
                CA:FALSE
            X509v3 Subject Key Identifier: 
                57:C3:74:EB:53:A0:99:A3:47:8E:DB:A2:38:8D:F4:58:17:25:42:8B
            X509v3 Authority Key Identifier: 
                keyid:86:4E:30:D2:2D:4E:5C:90:F0:21:CA:04:E0:3D:85:44:1D:07:2A:15
                DirName:/C=FR/ST=IDF/L=Paris/O=Local NODE-OPCUA Certificate Authority/CN=NodeOPCUA-CA
                serial:D3:4D:17:85:65:28:E7:25

            X509v3 Subject Alternative Name: 
                URI:urn:NB5DSCR503191NB:NodeOPCUA-DiscoveryServer, DNS:localhost, DNS:NB5DSCR503191NB
            Netscape Comment: 
                OpenSSL Generated Certificate
            X509v3 Key Usage: critical
                Digital Signature, Non Repudiation, Key Encipherment, Data Encipherment, Key Agreement, Certificate Sign
            X509v3 Extended Key Usage: critical
                TLS Web Server Authentication, TLS Web Client Authentication
    Signature Algorithm: sha256WithRSAEncryption
         84:6e:12:67:b9:7c:2b:fb:eb:62:c9:0a:4e:c6:df:c6:b4:06:
         1c:5f:b2:bb:f5:b6:43:8a:b2:db:41:48:6f:c3:9a:76:6e:6b:
         1c:fc:f7:6a:8c:2f:3a:ea:da:cb:36:1b:1d:a3:c6:dc:fb:ee:
         18:20:df:5f:17:76:97:01:ec:c2:8c:66:ab:42:25:3a:8f:9b:
         a6:2a:5d:1f:ad:21:61:34:75:b4:bf:02:28:36:a1:2c:dc:2f:
         f6:b0:d8:46:d3:7f:58:95:d4:f1:d3:ed:99:ae:3c:58:15:ad:
         7c:2e:36:b0:6b:c4:74:3d:f4:e0:c3:12:63:3a:a9:1d:ee:28:
         a6:c7:e5:5b:3f:7e:ea:a8:1d:bd:3d:72:eb:dc:3c:ef:97:88:
         e7:2a:2b:a7:46:d9:ea:75:cd:23:77:8f:57:56:3a:de:15:8f:
         82:68:53:43:40:6c:8a:e8:7b:5b:6f:fc:c5:3f:8a:93:36:f7:
         8f:4e:61:f6:21:b8:e8:32:93:08:97:d1:5b:89:28:59:5e:97:
         c9:d2:95:4b:cb:a1:01:b7:08:89:bf:e5:26:9c:9d:af:ad:5c:
         a2:39:02:db:b4:0b:82:c4:69:28:0d:0f:33:ff:d0:2b:6c:68:
         87:8b:39:8a:de:7c:87:a0:08:92:7e:6b:af:f4:06:5c:ed:33:
         42:97:92:d2
-----BEGIN CERTIFICATE-----
MIIENTCCAx2gAwIBAgICEAgwDQYJKoZIhvcNAQELBQAwczELMAkGA1UEBhMCRlIx
DDAKBgNVBAgTA0lERjEOMAwGA1UEBxMFUGFyaXMxLzAtBgNVBAoTJkxvY2FsIE5P
REUtT1BDVUEgQ2VydGlmaWNhdGUgQXV0aG9yaXR5MRUwEwYDVQQDEwxOb2RlT1BD
VUEtQ0EwIhgPMjAxODA5MDMxMDQzMzNaGA8yMDE5MDkwMzEwNDMzM1owNTELMAkG
A1UEBhMCRlIxEjAQBgNVBAoMCU5vZGVPUENVQTESMBAGA1UEAwwJTm9kZU9QQ1VB
MIGfMA0GCSqGSIb3DQEBAQUAA4GNADCBiQKBgQDVWHNcNIWer2MCSB+DrSvfedQJ
oAIN/yF4cH1ruhpZ4bDVpa0JTGVxALXkfjQnoAHTH9Z6yQx2Fqw56Jk0ilvaxEyC
sTD3nXO8HGSxDEgUlXCi0hIi+KsprmnezynXIDrKm9wROgW5ilVIRFHd8HmkzKBE
VeKb81bi8vGP7pSTTwIDAQABo4IBjzCCAYswDAYDVR0TAQH/BAIwADAdBgNVHQ4E
FgQUV8N061OgmaNHjtuiOI30WBclQoswgaUGA1UdIwSBnTCBmoAUhk4w0i1OXJDw
IcoE4D2FRB0HKhWhd6R1MHMxCzAJBgNVBAYTAkZSMQwwCgYDVQQIEwNJREYxDjAM
BgNVBAcTBVBhcmlzMS8wLQYDVQQKEyZMb2NhbCBOT0RFLU9QQ1VBIENlcnRpZmlj
YXRlIEF1dGhvcml0eTEVMBMGA1UEAxMMTm9kZU9QQ1VBLUNBggkA000XhWUo5yUw
VAYDVR0RBE0wS4YtdXJuOk5CNURTQ1I1MDMxOTFOQjpOb2RlT1BDVUEtRGlzY292
ZXJ5U2VydmVygglsb2NhbGhvc3SCD05CNURTQ1I1MDMxOTFOQjAsBglghkgBhvhC
AQ0EHxYdT3BlblNTTCBHZW5lcmF0ZWQgQ2VydGlmaWNhdGUwDgYDVR0PAQH/BAQD
AgL8MCAGA1UdJQEB/wQWMBQGCCsGAQUFBwMBBggrBgEFBQcDAjANBgkqhkiG9w0B
AQsFAAOCAQEAhG4SZ7l8K/vrYskKTsbfxrQGHF+yu/W2Q4qy20FIb8Oadm5rHPz3
aowvOurayzYbHaPG3PvuGCDfXxd2lwHswoxmq0IlOo+bpipdH60hYTR1tL8CKDah
LNwv9rDYRtN/WJXU8dPtma48WBWtfC42sGvEdD304MMSYzqpHe4opsflWz9+6qgd
vT1y69w875eI5yorp0bZ6nXNI3ePV1Y63hWPgmhTQ0Bsiuh7W2/8xT+Kkzb3j05h
9iG46DKTCJfRW4koWV6XydKVS8uhAbcIib/lJpydr61cojkC27QLgsRpKA0PM//Q
K2xoh4s5it58h6AIkn5rr/QGXO0zQpeS0g==
-----END CERTIFICATE-----
-----BEGIN CERTIFICATE-----
MIIE3TCCA8WgAwIBAgIJANNNF4VlKOclMA0GCSqGSIb3DQEBCwUAMHMxCzAJBgNV
BAYTAkZSMQwwCgYDVQQIEwNJREYxDjAMBgNVBAcTBVBhcmlzMS8wLQYDVQQKEyZM
b2NhbCBOT0RFLU9QQ1VBIENlcnRpZmljYXRlIEF1dGhvcml0eTEVMBMGA1UEAxMM
Tm9kZU9QQ1VBLUNBMB4XDTE4MDkwNDEwNDMzNFoXDTI4MDkwMTEwNDMzNFowczEL
MAkGA1UEBhMCRlIxDDAKBgNVBAgTA0lERjEOMAwGA1UEBxMFUGFyaXMxLzAtBgNV
BAoTJkxvY2FsIE5PREUtT1BDVUEgQ2VydGlmaWNhdGUgQXV0aG9yaXR5MRUwEwYD
VQQDEwxOb2RlT1BDVUEtQ0EwggEiMA0GCSqGSIb3DQEBAQUAA4IBDwAwggEKAoIB
AQCvYUzijDNz77wTkCowT3+E4StzWetxBIGZbsaV2sMn8z+qKWqNS6jkFF28Us0J
dXQYChjkv+WKrjNXLNOJ8vByYwdKIStJaNXSPM7oepSJhO8WGHESi6qvEQhAC7fz
Rf/FsjJ6ebsceX1vtnCPrluB5HdgG6XSF/msJ9kBJi93ojfeiWD9StsIhhnl1QwX
HwLL6kBxE58AiFHnsFb5sDKzE3B56USaMwPATm4n0zMyGHZ443XbtZ83I6NU161q
WsFEIr4jaM9A41ZwZAmbGKWkfE/v+zujiqSNAfhUhUIDwSRuBNX3YE96M+C3HoUv
TjWVGIc8+B5nTtQqQgx8tgldAgMBAAGjggFyMIIBbjAdBgNVHQ4EFgQUhk4w0i1O
XJDwIcoE4D2FRB0HKhUwgaUGA1UdIwSBnTCBmoAUhk4w0i1OXJDwIcoE4D2FRB0H
KhWhd6R1MHMxCzAJBgNVBAYTAkZSMQwwCgYDVQQIEwNJREYxDjAMBgNVBAcTBVBh
cmlzMS8wLQYDVQQKEyZMb2NhbCBOT0RFLU9QQ1VBIENlcnRpZmljYXRlIEF1dGhv
cml0eTEVMBMGA1UEAxMMTm9kZU9QQ1VBLUNBggkA000XhWUo5yUwDAYDVR0TBAUw
AwEB/zAOBgNVHQ8BAf8EBAMCAQYwVwYJYIZIAYb4QgENBEoWSENBIENlcnRpZmlj
YXRlIGdlbmVyYXRlZCBieSBOb2RlLU9QQ1VBIENlcnRpZmljYXRlIHV0aWxpdHkg
dXNpbmcgb3BlbnNzbDAuBgNVHR8EJzAlMCOgIaAfhh1odHRwOi8vbG9jYWxob3N0
Ojg5MDAvY3JsLnBlbTANBgkqhkiG9w0BAQsFAAOCAQEAR3YnhJgfXuL2u7BkL0RS
+3ZIqhrvVGEJ5LiY31KlUoBMd6qENBuI18xQfdU/8JcoKNkn5Z4Ho7KYm4IfctEW
vURP2Ogiv/spKaIdq05EQX7EYXUhzos1UosuF4TZ7dZo+08pbKb7V4FXfh+gEXOO
11AlZDlrSgYdunsawi1p4REtfNxPCLuUkhnSbpUxlVJJwUfwhe8oa4gq4hIxDjSb
ULCC5t22mzyd/Lw57PDNqetcUDxns+SyakKFHdCcB5yBdbibc/g7R1xtzMNp7Wy+
uMIdWVLqNH7HehVmEBGNxxiH+Gr0B5eTs5NugEWlr/X0BCzsIQaSgc4Y7uKejXu/
jA==
-----END CERTIFICATE-----
