Certificate:
    Data:
        Version: 3 (0x2)
        Serial Number: 4106 (0x100a)
    Signature Algorithm: sha256WithRSAEncryption
        Issuer: C=FR, ST=IDF, L=Paris, O=Local NODE-OPCUA Certificate Authority, CN=NodeOPCUA-CA
        Validity
            Not Before: Sep  3 10:43:33 2018 GMT
            Not After : Sep  3 10:43:33 2019 GMT
        Subject: C=FR, O=NodeOPCUA, CN=NodeOPCUA
        Subject Public Key Info:
            Public Key Algorithm: rsaEncryption
                Public-Key: (2048 bit)
                Modulus:
                    00:a4:d5:36:39:98:d1:37:e9:88:05:43:fd:d4:01:
                    26:7b:eb:25:12:fb:14:bd:fb:3c:9f:50:b5:26:6d:
                    44:fc:42:5e:df:03:49:e1:ed:5b:64:3e:7a:c5:6c:
                    cf:a9:4d:05:7f:b5:31:ec:63:93:dd:70:70:b6:a9:
                    0e:05:50:50:6a:ad:61:00:c9:63:65:47:da:5a:42:
                    12:8d:eb:29:68:be:55:e6:f8:19:a6:15:3c:f2:2e:
                    ab:56:ea:66:95:78:fe:78:f4:5a:a7:aa:b3:48:b9:
                    b6:2f:86:75:42:68:64:97:90:dc:23:39:f9:cd:0c:
                    53:4a:a3:b8:ff:3c:e2:46:af:ad:8e:3a:7b:4f:62:
                    00:b2:a4:44:f6:d1:ab:a8:4d:d5:5c:07:8c:c4:7d:
                    b5:76:ab:e2:a4:a1:1e:08:67:c5:04:06:82:81:3e:
                    18:d5:fe:e1:46:75:2f:dd:09:95:0f:10:92:6b:59:
                    ae:b5:f2:4a:e5:2c:93:18:24:3c:98:c3:c1:8d:3f:
                    02:9f:7e:04:d5:3c:4b:a9:28:7f:f2:1e:75:2d:90:
                    f3:e9:12:4b:18:1b:90:b4:2c:d2:11:6c:e8:69:d6:
                    bb:fb:59:18:d7:5e:ba:b1:13:18:b4:6a:22:53:80:
                    c0:15:a5:45:bd:da:84:e0:4a:bf:83:6c:8b:d1:51:
                    ef:83
                Exponent: 65537 (0x10001)
        X509v3 extensions:
            X509v3 Basic Constraints: critical
                CA:FALSE
            X509v3 Subject Key Identifier: 
                65:48:43:11:97:98:BD:B2:E7:1E:F4:B2:7F:1F:97:97:12:2D:6D:0C
            X509v3 Authority Key Identifier: 
                keyid:86:4E:30:D2:2D:4E:5C:90:F0:21:CA:04:E0:3D:85:44:1D:07:2A:15
                DirName:/C=FR/ST=IDF/L=Paris/O=Local NODE-OPCUA Certificate Authority/CN=NodeOPCUA-CA
                serial:D3:4D:17:85:65:28:E7:25

            X509v3 Subject Alternative Name: 
                URI:urn:NB5DSCR503191NB:NodeOPCUA-DiscoveryServer, DNS:localhost, DNS:NB5DSCR503191NB
            Netscape Comment: 
                OpenSSL Generated Certificate
            X509v3 Key Usage: critical
                Digital Signature, Non Repudiation, Key Encipherment, Data Encipherment, Key Agreement, Certificate Sign
            X509v3 Extended Key Usage: critical
                TLS Web Server Authentication, TLS Web Client Authentication
    Signature Algorithm: sha256WithRSAEncryption
         5c:bf:8a:bb:8c:dc:eb:15:b6:2d:ad:05:b1:f5:91:29:0b:dc:
         9b:a2:c5:fe:68:6a:b3:00:db:c4:03:eb:d7:b6:d6:5f:ae:85:
         66:20:7f:8b:e2:5c:36:1d:d8:44:02:24:e3:64:71:19:ca:9e:
         e0:41:ab:22:ef:fd:db:fb:0d:e5:eb:2f:09:c5:1e:84:96:d7:
         78:cc:dc:46:26:fb:47:63:bd:dd:5b:31:1a:a8:16:0b:0b:bc:
         6a:a0:33:88:1d:98:d3:35:35:c9:9e:5c:ed:2b:1f:f5:64:e9:
         6f:f0:25:ee:8e:41:79:46:d9:ac:d0:26:1d:98:7a:1e:ab:32:
         3e:40:2d:a7:58:9f:f8:53:9b:1e:ba:5c:09:a7:1b:15:78:82:
         e7:89:89:ce:cc:c7:af:35:bf:02:8d:d8:d3:4e:ca:3e:68:65:
         1e:37:19:7a:8d:0c:4e:62:ea:6c:44:e6:58:9c:68:1b:e9:cc:
         02:d1:33:fd:ba:aa:16:69:69:56:f6:17:17:5d:40:78:13:2d:
         b0:e1:2f:9c:7f:c7:48:6d:30:2a:e9:53:b6:34:2e:27:fc:df:
         05:3d:49:e3:1e:50:55:ab:1b:44:f6:82:87:34:6f:02:0a:34:
         d8:5b:72:a2:54:e5:07:de:fd:cb:0d:86:84:36:8e:26:13:07:
         3e:1e:89:18
-----BEGIN CERTIFICATE-----
MIIEuTCCA6GgAwIBAgICEAowDQYJKoZIhvcNAQELBQAwczELMAkGA1UEBhMCRlIx
DDAKBgNVBAgTA0lERjEOMAwGA1UEBxMFUGFyaXMxLzAtBgNVBAoTJkxvY2FsIE5P
REUtT1BDVUEgQ2VydGlmaWNhdGUgQXV0aG9yaXR5MRUwEwYDVQQDEwxOb2RlT1BD
VUEtQ0EwIhgPMjAxODA5MDMxMDQzMzNaGA8yMDE5MDkwMzEwNDMzM1owNTELMAkG
A1UEBhMCRlIxEjAQBgNVBAoMCU5vZGVPUENVQTESMBAGA1UEAwwJTm9kZU9QQ1VB
MIIBIjANBgkqhkiG9w0BAQEFAAOCAQ8AMIIBCgKCAQEApNU2OZjRN+mIBUP91AEm
e+slEvsUvfs8n1C1Jm1E/EJe3wNJ4e1bZD56xWzPqU0Ff7Ux7GOT3XBwtqkOBVBQ
aq1hAMljZUfaWkISjespaL5V5vgZphU88i6rVupmlXj+ePRap6qzSLm2L4Z1Qmhk
l5DcIzn5zQxTSqO4/zziRq+tjjp7T2IAsqRE9tGrqE3VXAeMxH21dqvipKEeCGfF
BAaCgT4Y1f7hRnUv3QmVDxCSa1mutfJK5SyTGCQ8mMPBjT8Cn34E1TxLqSh/8h51
LZDz6RJLGBuQtCzSEWzoada7+1kY1166sRMYtGoiU4DAFaVFvdqE4Eq/g2yL0VHv
gwIDAQABo4IBjzCCAYswDAYDVR0TAQH/BAIwADAdBgNVHQ4EFgQUZUhDEZeYvbLn
HvSyfx+XlxItbQwwgaUGA1UdIwSBnTCBmoAUhk4w0i1OXJDwIcoE4D2FRB0HKhWh
d6R1MHMxCzAJBgNVBAYTAkZSMQwwCgYDVQQIEwNJREYxDjAMBgNVBAcTBVBhcmlz
MS8wLQYDVQQKEyZMb2NhbCBOT0RFLU9QQ1VBIENlcnRpZmljYXRlIEF1dGhvcml0
eTEVMBMGA1UEAxMMTm9kZU9QQ1VBLUNBggkA000XhWUo5yUwVAYDVR0RBE0wS4Yt
dXJuOk5CNURTQ1I1MDMxOTFOQjpOb2RlT1BDVUEtRGlzY292ZXJ5U2VydmVyggls
b2NhbGhvc3SCD05CNURTQ1I1MDMxOTFOQjAsBglghkgBhvhCAQ0EHxYdT3BlblNT
TCBHZW5lcmF0ZWQgQ2VydGlmaWNhdGUwDgYDVR0PAQH/BAQDAgL8MCAGA1UdJQEB
/wQWMBQGCCsGAQUFBwMBBggrBgEFBQcDAjANBgkqhkiG9w0BAQsFAAOCAQEAXL+K
u4zc6xW2La0FsfWRKQvcm6LF/mhqswDbxAPr17bWX66FZiB/i+JcNh3YRAIk42Rx
Gcqe4EGrIu/92/sN5esvCcUehJbXeMzcRib7R2O93VsxGqgWCwu8aqAziB2Y0zU1
yZ5c7Ssf9WTpb/Al7o5BeUbZrNAmHZh6HqsyPkAtp1if+FObHrpcCacbFXiC54mJ
zszHrzW/Ao3Y007KPmhlHjcZeo0MTmLqbETmWJxoG+nMAtEz/bqqFmlpVvYXF11A
eBMtsOEvnH/HSG0wKulTtjQuJ/zfBT1J4x5QVasbRPaChzRvAgo02FtyolTlB979
yw2GhDaOJhMHPh6JGA==
-----END CERTIFICATE-----
-----BEGIN CERTIFICATE-----
MIIE3TCCA8WgAwIBAgIJANNNF4VlKOclMA0GCSqGSIb3DQEBCwUAMHMxCzAJBgNV
BAYTAkZSMQwwCgYDVQQIEwNJREYxDjAMBgNVBAcTBVBhcmlzMS8wLQYDVQQKEyZM
b2NhbCBOT0RFLU9QQ1VBIENlcnRpZmljYXRlIEF1dGhvcml0eTEVMBMGA1UEAxMM
Tm9kZU9QQ1VBLUNBMB4XDTE4MDkwNDEwNDMzNFoXDTI4MDkwMTEwNDMzNFowczEL
MAkGA1UEBhMCRlIxDDAKBgNVBAgTA0lERjEOMAwGA1UEBxMFUGFyaXMxLzAtBgNV
BAoTJkxvY2FsIE5PREUtT1BDVUEgQ2VydGlmaWNhdGUgQXV0aG9yaXR5MRUwEwYD
VQQDEwxOb2RlT1BDVUEtQ0EwggEiMA0GCSqGSIb3DQEBAQUAA4IBDwAwggEKAoIB
AQCvYUzijDNz77wTkCowT3+E4StzWetxBIGZbsaV2sMn8z+qKWqNS6jkFF28Us0J
dXQYChjkv+WKrjNXLNOJ8vByYwdKIStJaNXSPM7oepSJhO8WGHESi6qvEQhAC7fz
Rf/FsjJ6ebsceX1vtnCPrluB5HdgG6XSF/msJ9kBJi93ojfeiWD9StsIhhnl1QwX
HwLL6kBxE58AiFHnsFb5sDKzE3B56USaMwPATm4n0zMyGHZ443XbtZ83I6NU161q
WsFEIr4jaM9A41ZwZAmbGKWkfE/v+zujiqSNAfhUhUIDwSRuBNX3YE96M+C3HoUv
TjWVGIc8+B5nTtQqQgx8tgldAgMBAAGjggFyMIIBbjAdBgNVHQ4EFgQUhk4w0i1O
XJDwIcoE4D2FRB0HKhUwgaUGA1UdIwSBnTCBmoAUhk4w0i1OXJDwIcoE4D2FRB0H
KhWhd6R1MHMxCzAJBgNVBAYTAkZSMQwwCgYDVQQIEwNJREYxDjAMBgNVBAcTBVBh
cmlzMS8wLQYDVQQKEyZMb2NhbCBOT0RFLU9QQ1VBIENlcnRpZmljYXRlIEF1dGhv
cml0eTEVMBMGA1UEAxMMTm9kZU9QQ1VBLUNBggkA000XhWUo5yUwDAYDVR0TBAUw
AwEB/zAOBgNVHQ8BAf8EBAMCAQYwVwYJYIZIAYb4QgENBEoWSENBIENlcnRpZmlj
YXRlIGdlbmVyYXRlZCBieSBOb2RlLU9QQ1VBIENlcnRpZmljYXRlIHV0aWxpdHkg
dXNpbmcgb3BlbnNzbDAuBgNVHR8EJzAlMCOgIaAfhh1odHRwOi8vbG9jYWxob3N0
Ojg5MDAvY3JsLnBlbTANBgkqhkiG9w0BAQsFAAOCAQEAR3YnhJgfXuL2u7BkL0RS
+3ZIqhrvVGEJ5LiY31KlUoBMd6qENBuI18xQfdU/8JcoKNkn5Z4Ho7KYm4IfctEW
vURP2Ogiv/spKaIdq05EQX7EYXUhzos1UosuF4TZ7dZo+08pbKb7V4FXfh+gEXOO
11AlZDlrSgYdunsawi1p4REtfNxPCLuUkhnSbpUxlVJJwUfwhe8oa4gq4hIxDjSb
ULCC5t22mzyd/Lw57PDNqetcUDxns+SyakKFHdCcB5yBdbibc/g7R1xtzMNp7Wy+
uMIdWVLqNH7HehVmEBGNxxiH+Gr0B5eTs5NugEWlr/X0BCzsIQaSgc4Y7uKejXu/
jA==
-----END CERTIFICATE-----
