Certificate Request:
    Data:
        Version: 0 (0x0)
        Subject: C=FR, O=NodeOPCUA, CN=NodeOPCUA
        Subject Public Key Info:
            Public Key Algorithm: rsaEncryption
                Public-Key: (2048 bit)
                Modulus:
                    00:a4:d5:36:39:98:d1:37:e9:88:05:43:fd:d4:01:
                    26:7b:eb:25:12:fb:14:bd:fb:3c:9f:50:b5:26:6d:
                    44:fc:42:5e:df:03:49:e1:ed:5b:64:3e:7a:c5:6c:
                    cf:a9:4d:05:7f:b5:31:ec:63:93:dd:70:70:b6:a9:
                    0e:05:50:50:6a:ad:61:00:c9:63:65:47:da:5a:42:
                    12:8d:eb:29:68:be:55:e6:f8:19:a6:15:3c:f2:2e:
                    ab:56:ea:66:95:78:fe:78:f4:5a:a7:aa:b3:48:b9:
                    b6:2f:86:75:42:68:64:97:90:dc:23:39:f9:cd:0c:
                    53:4a:a3:b8:ff:3c:e2:46:af:ad:8e:3a:7b:4f:62:
                    00:b2:a4:44:f6:d1:ab:a8:4d:d5:5c:07:8c:c4:7d:
                    b5:76:ab:e2:a4:a1:1e:08:67:c5:04:06:82:81:3e:
                    18:d5:fe:e1:46:75:2f:dd:09:95:0f:10:92:6b:59:
                    ae:b5:f2:4a:e5:2c:93:18:24:3c:98:c3:c1:8d:3f:
                    02:9f:7e:04:d5:3c:4b:a9:28:7f:f2:1e:75:2d:90:
                    f3:e9:12:4b:18:1b:90:b4:2c:d2:11:6c:e8:69:d6:
                    bb:fb:59:18:d7:5e:ba:b1:13:18:b4:6a:22:53:80:
                    c0:15:a5:45:bd:da:84:e0:4a:bf:83:6c:8b:d1:51:
                    ef:83
                Exponent: 65537 (0x10001)
        Attributes:
        Requested Extensions:
            X509v3 Basic Constraints: 
                CA:FALSE
            X509v3 Key Usage: critical
                Certificate Sign, CRL Sign
            X509v3 Subject Alternative Name: 
                URI:undefined
    Signature Algorithm: sha256WithRSAEncryption
         24:13:a7:a6:0b:97:c3:19:b6:3e:0f:0b:58:98:35:8d:16:48:
         f3:2e:ab:7b:55:c5:7e:d3:87:3a:58:b2:6d:2c:79:d1:06:de:
         34:46:4a:49:56:f7:3f:23:2c:a3:6c:a6:76:3c:f6:a8:ea:84:
         a5:86:5b:bb:c8:55:21:35:c8:be:3d:e9:bd:13:66:55:00:f1:
         16:73:35:2f:c6:50:08:10:fe:0c:30:9e:a3:3f:ce:8e:f7:e4:
         6f:22:2d:53:7b:e0:2a:95:c4:d6:62:2c:b2:4e:6c:76:59:18:
         05:3d:8e:19:04:9e:57:51:d8:da:8f:3c:c8:af:ba:b4:02:a3:
         92:05:ef:9a:d3:dc:e1:25:e1:f6:20:25:c6:e5:e0:24:36:f0:
         d8:d6:d7:3e:05:f3:d3:d3:20:4a:bf:0a:48:0c:b8:70:c4:44:
         39:84:50:32:43:6d:13:16:64:13:de:94:4c:cb:a3:87:67:18:
         fb:a7:06:48:4a:4d:6c:a9:04:cc:51:cb:2a:35:51:6e:41:5e:
         9e:a8:b2:df:06:2f:08:2c:cc:b7:74:db:0c:86:e0:db:52:07:
         df:91:cb:8a:f6:78:b5:21:de:47:13:22:dd:af:e2:07:64:27:
         80:be:97:35:3c:09:7b:48:e1:5d:1b:b4:44:27:95:20:20:00:
         b4:6b:9f:c2
-----BEGIN CERTIFICATE REQUEST-----
MIICvDCCAaQCAQAwNTELMAkGA1UEBhMCRlIxEjAQBgNVBAoMCU5vZGVPUENVQTES
MBAGA1UEAwwJTm9kZU9QQ1VBMIIBIjANBgkqhkiG9w0BAQEFAAOCAQ8AMIIBCgKC
AQEApNU2OZjRN+mIBUP91AEme+slEvsUvfs8n1C1Jm1E/EJe3wNJ4e1bZD56xWzP
qU0Ff7Ux7GOT3XBwtqkOBVBQaq1hAMljZUfaWkISjespaL5V5vgZphU88i6rVupm
lXj+ePRap6qzSLm2L4Z1Qmhkl5DcIzn5zQxTSqO4/zziRq+tjjp7T2IAsqRE9tGr
qE3VXAeMxH21dqvipKEeCGfFBAaCgT4Y1f7hRnUv3QmVDxCSa1mutfJK5SyTGCQ8
mMPBjT8Cn34E1TxLqSh/8h51LZDz6RJLGBuQtCzSEWzoada7+1kY1166sRMYtGoi
U4DAFaVFvdqE4Eq/g2yL0VHvgwIDAQABoEIwQAYJKoZIhvcNAQkOMTMwMTAJBgNV
HRMEAjAAMA4GA1UdDwEB/wQEAwIBBjAUBgNVHREEDTALhgl1bmRlZmluZWQwDQYJ
KoZIhvcNAQELBQADggEBACQTp6YLl8MZtj4PC1iYNY0WSPMuq3tVxX7ThzpYsm0s
edEG3jRGSklW9z8jLKNspnY89qjqhKWGW7vIVSE1yL496b0TZlUA8RZzNS/GUAgQ
/gwwnqM/zo735G8iLVN74CqVxNZiLLJObHZZGAU9jhkEnldR2NqPPMivurQCo5IF
75rT3OEl4fYgJcbl4CQ28NjW1z4F89PTIEq/CkgMuHDERDmEUDJDbRMWZBPelEzL
o4dnGPunBkhKTWypBMxRyyo1UW5BXp6ost8GLwgszLd02wyG4NtSB9+Ry4r2eLUh
3kcTIt2v4gdkJ4C+lzU8CXtI4V0btEQnlSAgALRrn8I=
-----END CERTIFICATE REQUEST-----
