Certificate:
    Data:
        Version: 3 (0x2)
        Serial Number: 4106 (0x100a)
    Signature Algorithm: sha256WithRSAEncryption
        Issuer: C=FR, ST=IDF, L=Paris, O=Local NODE-OPCUA Certificate Authority, CN=NodeOPCUA-CA
        Validity
            Not Before: Aug 28 11:14:05 2017 GMT
            Not After : Aug 28 11:14:05 2018 GMT
        Subject: C=FR, O=NodeOPCUA, CN=NodeOPCUA
        Subject Public Key Info:
            Public Key Algorithm: rsaEncryption
                Public-Key: (2048 bit)
                Modulus:
                    00:d0:0d:6d:c1:62:1f:05:bf:7e:cc:96:b0:8a:67:
                    0a:5f:69:b6:fd:b8:9e:03:f2:40:71:db:2f:33:a8:
                    29:d5:2d:f2:15:5c:85:39:12:54:5b:0a:f3:89:b5:
                    5c:ef:5d:49:13:92:b1:8e:89:f6:a3:fc:8d:2c:84:
                    76:74:91:f5:e3:d9:3b:54:de:24:6e:41:25:96:5e:
                    75:46:e0:97:fe:40:c1:12:af:a7:64:43:6f:1d:95:
                    6a:f6:dc:41:17:3b:7f:54:25:f9:8d:b8:1c:e5:6c:
                    d4:56:a6:cd:d7:8d:24:15:03:07:62:31:de:3a:bf:
                    d9:79:06:72:ab:d6:95:39:71:d5:6a:56:07:fa:69:
                    38:f1:0e:a7:a7:a8:d7:f8:cf:37:72:fe:be:7f:66:
                    7f:96:a5:ab:01:e0:0f:90:ba:a2:68:0d:d6:49:5d:
                    45:fb:93:9f:66:08:d7:b6:a8:2d:6a:57:e4:f3:80:
                    f3:43:93:0a:e3:f2:46:a9:ae:10:76:8c:e3:56:97:
                    8a:07:be:fc:30:6e:d8:9b:13:aa:1f:38:ca:ad:4f:
                    72:33:9e:2d:8c:60:b8:8e:16:88:4c:1b:aa:f3:c6:
                    46:4e:4a:29:d4:8f:7c:43:d5:94:2b:d2:ea:56:90:
                    a0:6e:cd:24:1b:b3:5f:d8:ba:31:27:17:a6:02:d9:
                    61:df
                Exponent: 65537 (0x10001)
        X509v3 extensions:
            X509v3 Basic Constraints: critical
                CA:FALSE
            X509v3 Subject Key Identifier: 
                5B:9F:EC:70:C1:C6:CA:4A:5E:B2:C9:CE:F1:1B:BE:8B:C7:EA:DD:A3
            X509v3 Authority Key Identifier: 
                keyid:76:2A:71:9E:BC:6F:90:D6:D8:9A:DD:14:DE:DC:7B:D2:9C:55:C3:24
                DirName:/C=FR/ST=IDF/L=Paris/O=Local NODE-OPCUA Certificate Authority/CN=NodeOPCUA-CA
                serial:F9:A7:8A:6B:15:59:CE:15

            X509v3 Subject Alternative Name: 
                URI:urn:NB5DSCR503191NB:NodeOPCUA-DiscoveryServer, DNS:localhost, DNS:NB5DSCR503191NB
            Netscape Comment: 
                OpenSSL Generated Certificate
            X509v3 Key Usage: critical
                Digital Signature, Non Repudiation, Key Encipherment, Data Encipherment, Key Agreement, Certificate Sign
            X509v3 Extended Key Usage: critical
                TLS Web Server Authentication, TLS Web Client Authentication
    Signature Algorithm: sha256WithRSAEncryption
         53:c8:1c:34:22:58:1a:70:53:2b:0c:2c:c3:8a:5c:59:35:ea:
         9b:99:d4:a0:a3:7b:66:56:11:e6:c7:b6:9d:25:c9:34:61:e2:
         c8:70:ba:ca:c5:25:2c:a0:d5:dc:bb:c7:90:57:63:74:9f:bc:
         4b:f7:90:78:a6:74:2a:1d:0a:86:12:ab:6f:a0:fa:f4:06:6c:
         c5:64:5e:d6:f4:2c:bb:cd:5e:de:9e:65:57:01:23:53:ea:1f:
         db:3a:05:57:4a:25:6b:db:fd:e7:74:29:d1:09:23:4c:00:d6:
         cc:6d:65:0a:95:f7:cb:6f:72:c0:1e:f1:58:9a:73:3b:08:31:
         1f:c9:42:72:af:82:c6:e2:8b:90:4d:67:15:80:4f:bc:31:e4:
         d6:67:b7:96:3c:b5:ad:25:0a:a7:9f:95:56:fa:da:1b:b1:d6:
         09:6e:6a:df:fd:d5:91:d1:99:37:5f:06:b8:ec:1d:21:9f:31:
         0f:67:c7:69:0f:ad:fb:a5:70:2c:6a:a4:a6:bf:6b:3c:7d:07:
         15:f6:4e:c3:88:6e:98:8d:c2:ce:b7:58:65:a1:35:e6:66:e7:
         a8:72:a4:ee:d7:60:92:40:c4:0e:2e:d5:d4:df:a3:a1:de:d9:
         9e:7e:42:b6:d3:b8:38:0b:00:c4:3a:f2:43:27:25:6a:0b:a8:
         2e:9a:11:16
-----BEGIN CERTIFICATE-----
MIIEuTCCA6GgAwIBAgICEAowDQYJKoZIhvcNAQELBQAwczELMAkGA1UEBhMCRlIx
DDAKBgNVBAgTA0lERjEOMAwGA1UEBxMFUGFyaXMxLzAtBgNVBAoTJkxvY2FsIE5P
REUtT1BDVUEgQ2VydGlmaWNhdGUgQXV0aG9yaXR5MRUwEwYDVQQDEwxOb2RlT1BD
VUEtQ0EwIhgPMjAxNzA4MjgxMTE0MDVaGA8yMDE4MDgyODExMTQwNVowNTELMAkG
A1UEBhMCRlIxEjAQBgNVBAoMCU5vZGVPUENVQTESMBAGA1UEAwwJTm9kZU9QQ1VB
MIIBIjANBgkqhkiG9w0BAQEFAAOCAQ8AMIIBCgKCAQEA0A1twWIfBb9+zJawimcK
X2m2/bieA/JAcdsvM6gp1S3yFVyFORJUWwrzibVc711JE5Kxjon2o/yNLIR2dJH1
49k7VN4kbkElll51RuCX/kDBEq+nZENvHZVq9txBFzt/VCX5jbgc5WzUVqbN140k
FQMHYjHeOr/ZeQZyq9aVOXHValYH+mk48Q6np6jX+M83cv6+f2Z/lqWrAeAPkLqi
aA3WSV1F+5OfZgjXtqgtalfk84DzQ5MK4/JGqa4QdozjVpeKB778MG7YmxOqHzjK
rU9yM54tjGC4jhaITBuq88ZGTkop1I98Q9WUK9LqVpCgbs0kG7Nf2LoxJxemAtlh
3wIDAQABo4IBjzCCAYswDAYDVR0TAQH/BAIwADAdBgNVHQ4EFgQUW5/scMHGykpe
ssnO8Ru+i8fq3aMwgaUGA1UdIwSBnTCBmoAUdipxnrxvkNbYmt0U3tx70pxVwySh
d6R1MHMxCzAJBgNVBAYTAkZSMQwwCgYDVQQIEwNJREYxDjAMBgNVBAcTBVBhcmlz
MS8wLQYDVQQKEyZMb2NhbCBOT0RFLU9QQ1VBIENlcnRpZmljYXRlIEF1dGhvcml0
eTEVMBMGA1UEAxMMTm9kZU9QQ1VBLUNBggkA+aeKaxVZzhUwVAYDVR0RBE0wS4Yt
dXJuOk5CNURTQ1I1MDMxOTFOQjpOb2RlT1BDVUEtRGlzY292ZXJ5U2VydmVyggls
b2NhbGhvc3SCD05CNURTQ1I1MDMxOTFOQjAsBglghkgBhvhCAQ0EHxYdT3BlblNT
TCBHZW5lcmF0ZWQgQ2VydGlmaWNhdGUwDgYDVR0PAQH/BAQDAgL8MCAGA1UdJQEB
/wQWMBQGCCsGAQUFBwMBBggrBgEFBQcDAjANBgkqhkiG9w0BAQsFAAOCAQEAU8gc
NCJYGnBTKwwsw4pcWTXqm5nUoKN7ZlYR5se2nSXJNGHiyHC6ysUlLKDV3LvHkFdj
dJ+8S/eQeKZ0Kh0KhhKrb6D69AZsxWRe1vQsu81e3p5lVwEjU+of2zoFV0ola9v9
53Qp0QkjTADWzG1lCpX3y29ywB7xWJpzOwgxH8lCcq+CxuKLkE1nFYBPvDHk1me3
ljy1rSUKp5+VVvraG7HWCW5q3/3VkdGZN18GuOwdIZ8xD2fHaQ+t+6VwLGqkpr9r
PH0HFfZOw4humI3CzrdYZaE15mbnqHKk7tdgkkDEDi7V1N+jod7Znn5CttO4OAsA
xDryQyclaguoLpoRFg==
-----END CERTIFICATE-----
-----BEGIN CERTIFICATE-----
MIIE3TCCA8WgAwIBAgIJAPmnimsVWc4VMA0GCSqGSIb3DQEBCwUAMHMxCzAJBgNV
BAYTAkZSMQwwCgYDVQQIEwNJREYxDjAMBgNVBAcTBVBhcmlzMS8wLQYDVQQKEyZM
b2NhbCBOT0RFLU9QQ1VBIENlcnRpZmljYXRlIEF1dGhvcml0eTEVMBMGA1UEAxMM
Tm9kZU9QQ1VBLUNBMB4XDTE3MDgyOTExMTQxMVoXDTI3MDgyNzExMTQxMVowczEL
MAkGA1UEBhMCRlIxDDAKBgNVBAgTA0lERjEOMAwGA1UEBxMFUGFyaXMxLzAtBgNV
BAoTJkxvY2FsIE5PREUtT1BDVUEgQ2VydGlmaWNhdGUgQXV0aG9yaXR5MRUwEwYD
VQQDEwxOb2RlT1BDVUEtQ0EwggEiMA0GCSqGSIb3DQEBAQUAA4IBDwAwggEKAoIB
AQCruHUuOjcrJKw+ykH8xh7Py0c7WM3Wzdfe0vpXJgVBBLiHVt1Hlwd/OS54FE8T
cjUGTTGGF0O7rdLkzQaW6SmmbwMUaovsaMRjiWtZgoPdN56UydUYQ9FYynNVcVNC
sI0t9yKUh++No1bJoa0BUtL6/Z/miGCJ4sSZNY29NA0WQaC1UmGJ6Sac6w93/8wy
ON7VtJuooOvqSRp7hbucq34KODDR+ZvOM8F8hwO7UfpWutrxGkheiQiX3kbByu7c
/IFnza3IicZhcxiARVtbypWpGqNZKbM5u3EugC687Bv533JRJ3zn3zRbXfb3L/NF
c3biMa27xUx8t9NicgwCefnxAgMBAAGjggFyMIIBbjAdBgNVHQ4EFgQUdipxnrxv
kNbYmt0U3tx70pxVwyQwgaUGA1UdIwSBnTCBmoAUdipxnrxvkNbYmt0U3tx70pxV
wyShd6R1MHMxCzAJBgNVBAYTAkZSMQwwCgYDVQQIEwNJREYxDjAMBgNVBAcTBVBh
cmlzMS8wLQYDVQQKEyZMb2NhbCBOT0RFLU9QQ1VBIENlcnRpZmljYXRlIEF1dGhv
cml0eTEVMBMGA1UEAxMMTm9kZU9QQ1VBLUNBggkA+aeKaxVZzhUwDAYDVR0TBAUw
AwEB/zAOBgNVHQ8BAf8EBAMCAQYwVwYJYIZIAYb4QgENBEoWSENBIENlcnRpZmlj
YXRlIGdlbmVyYXRlZCBieSBOb2RlLU9QQ1VBIENlcnRpZmljYXRlIHV0aWxpdHkg
dXNpbmcgb3BlbnNzbDAuBgNVHR8EJzAlMCOgIaAfhh1odHRwOi8vbG9jYWxob3N0
Ojg5MDAvY3JsLnBlbTANBgkqhkiG9w0BAQsFAAOCAQEAovaCuCWSYZtb5BW8oABL
n3iaHj8nQQM7exs4uJ0pK5PwOxv63Hv3bCuraxF0u6gA3VODv/NbapxGrlAyR4e/
RflYbTKb1HQxjIxtS3geRBBdrg0Fz9BEONag1s/Ou/3uWarZoUVKZ7UI1ZrDSzEI
Z+1P9MmtyqKR26AySB/M9LUTEPbxtqRaltnkCUpR4ptQFAS53Ng+34BeVzVf9tAQ
TbHAqJT6y6domjviM0ggat2MsDhlgk7xqtNGzi4+JN8J7u1MTLcxcH0qzjF/2L99
l1VVRqF4YirJfwfDlIQzyBSVYqJYCHyqeq9eRl5sa8ehPsLItqpZL8LCk7BxQM8f
sA==
-----END CERTIFICATE-----
