Certificate Request:
    Data:
        Version: 0 (0x0)
        Subject: C=FR, O=NodeOPCUA, CN=NodeOPCUA
        Subject Public Key Info:
            Public Key Algorithm: rsaEncryption
                Public-Key: (1024 bit)
                Modulus:
                    00:ac:45:20:77:36:b0:24:b4:7a:05:3b:a6:47:7e:
                    4f:ab:f9:9c:a7:67:89:70:56:0c:72:44:ad:8c:bb:
                    a6:86:80:19:60:a1:f9:30:03:ff:86:78:7d:cf:de:
                    a3:ee:56:38:6f:a1:2e:60:a4:21:20:44:75:e6:f6:
                    81:24:e6:f3:37:e8:51:fd:b8:59:10:71:ef:be:09:
                    78:d4:97:e6:43:f9:c9:d1:be:8f:95:31:b1:a6:8e:
                    c6:1f:cb:e0:42:a9:a9:f8:61:67:81:ab:57:a2:59:
                    94:63:52:b3:3d:6e:11:8b:ef:cd:b3:07:83:11:e4:
                    0a:67:fd:13:d6:68:56:34:ef
                Exponent: 65537 (0x10001)
        Attributes:
        Requested Extensions:
            X509v3 Basic Constraints: 
                CA:FALSE
            X509v3 Key Usage: critical
                Certificate Sign, CRL Sign
            X509v3 Subject Alternative Name: 
                URI:undefined
    Signature Algorithm: sha256WithRSAEncryption
         6e:56:8c:6b:d8:36:ec:a4:19:55:77:f4:0b:b5:9d:be:86:20:
         56:4a:5c:70:63:4c:4b:49:04:9d:6d:5e:a3:1b:f4:26:6a:75:
         59:8a:5b:46:9e:37:f1:af:87:b1:6f:6f:6a:e3:88:e6:4b:45:
         6a:80:c4:3a:19:79:2c:c6:22:76:84:3f:ee:d5:a9:06:2a:30:
         f1:57:d9:31:24:13:70:d1:eb:c2:cb:8b:e3:41:52:7a:10:a0:
         dd:2b:53:23:a6:c4:41:26:bd:86:30:35:f0:73:3e:ab:89:4e:
         8e:4b:02:40:24:ed:b0:34:38:3c:e6:1f:ad:40:b5:12:11:e8:
         6e:d3
-----BEGIN CERTIFICATE REQUEST-----
MIIBtzCCASACAQAwNTELMAkGA1UEBhMCRlIxEjAQBgNVBAoMCU5vZGVPUENVQTES
MBAGA1UEAwwJTm9kZU9QQ1VBMIGfMA0GCSqGSIb3DQEBAQUAA4GNADCBiQKBgQCs
RSB3NrAktHoFO6ZHfk+r+ZynZ4lwVgxyRK2Mu6aGgBlgofkwA/+GeH3P3qPuVjhv
oS5gpCEgRHXm9oEk5vM36FH9uFkQce++CXjUl+ZD+cnRvo+VMbGmjsYfy+BCqan4
YWeBq1eiWZRjUrM9bhGL782zB4MR5Apn/RPWaFY07wIDAQABoEIwQAYJKoZIhvcN
AQkOMTMwMTAJBgNVHRMEAjAAMA4GA1UdDwEB/wQEAwIBBjAUBgNVHREEDTALhgl1
bmRlZmluZWQwDQYJKoZIhvcNAQELBQADgYEAblaMa9g27KQZVXf0C7WdvoYgVkpc
cGNMS0kEnW1eoxv0Jmp1WYpbRp438a+HsW9vauOI5ktFaoDEOhl5LMYidoQ/7tWp
Biow8VfZMSQTcNHrwsuL40FSehCg3StTI6bEQSa9hjA18HM+q4lOjksCQCTtsDQ4
POYfrUC1EhHobtM=
-----END CERTIFICATE REQUEST-----
