Certificate:
    Data:
        Version: 3 (0x2)
        Serial Number: 4105 (0x1009)
    Signature Algorithm: sha256WithRSAEncryption
        Issuer: O=NodeOPCUA, CN=NodeOPCUA
        Validity
            Not Before: Sep  3 10:43:33 2018 GMT
            Not After : Sep  3 10:43:33 2019 GMT
        Subject: O=NodeOPCUA, CN=NodeOPCUA
        Subject Public Key Info:
            Public Key Algorithm: rsaEncryption
                Public-Key: (1024 bit)
                Modulus:
                    00:d5:58:73:5c:34:85:9e:af:63:02:48:1f:83:ad:
                    2b:df:79:d4:09:a0:02:0d:ff:21:78:70:7d:6b:ba:
                    1a:59:e1:b0:d5:a5:ad:09:4c:65:71:00:b5:e4:7e:
                    34:27:a0:01:d3:1f:d6:7a:c9:0c:76:16:ac:39:e8:
                    99:34:8a:5b:da:c4:4c:82:b1:30:f7:9d:73:bc:1c:
                    64:b1:0c:48:14:95:70:a2:d2:12:22:f8:ab:29:ae:
                    69:de:cf:29:d7:20:3a:ca:9b:dc:11:3a:05:b9:8a:
                    55:48:44:51:dd:f0:79:a4:cc:a0:44:55:e2:9b:f3:
                    56:e2:f2:f1:8f:ee:94:93:4f
                Exponent: 65537 (0x10001)
        X509v3 extensions:
            X509v3 Basic Constraints: critical
                CA:FALSE
            X509v3 Subject Key Identifier: 
                57:C3:74:EB:53:A0:99:A3:47:8E:DB:A2:38:8D:F4:58:17:25:42:8B
            X509v3 Authority Key Identifier: 
                keyid:57:C3:74:EB:53:A0:99:A3:47:8E:DB:A2:38:8D:F4:58:17:25:42:8B
                DirName:/O=NodeOPCUA/CN=NodeOPCUA
                serial:10:09

            X509v3 Subject Alternative Name: 
                URI:urn:NB5DSCR503191NB:NodeOPCUA-DiscoveryServer, DNS:localhost, DNS:NB5DSCR503191NB
            Netscape Comment: 
                OpenSSL Generated Certificate
            X509v3 Key Usage: critical
                Digital Signature, Non Repudiation, Key Encipherment, Data Encipherment, Key Agreement, Certificate Sign
            X509v3 Extended Key Usage: critical
                TLS Web Server Authentication, TLS Web Client Authentication
    Signature Algorithm: sha256WithRSAEncryption
         57:72:68:88:28:a1:5e:f4:5d:99:66:7e:fa:73:6e:89:a7:1c:
         f9:6e:bd:2d:b7:2b:3e:3d:58:04:a8:a0:c1:e2:e5:15:09:ef:
         d6:10:91:da:00:02:33:f1:c0:00:9a:dd:0d:af:b3:b2:19:2c:
         33:91:10:0d:0b:16:9d:5c:de:73:40:e5:b3:f1:2c:39:39:33:
         e7:64:00:33:e3:17:73:07:75:e3:b1:ac:34:b5:30:39:8f:b0:
         a8:22:dc:45:42:51:81:81:96:8f:cd:a9:b6:ab:81:74:49:d7:
         54:15:f2:fa:29:c6:f2:60:e6:1b:76:34:20:e4:8d:d1:01:c1:
         37:78
-----BEGIN CERTIFICATE-----
MIIDBzCCAnCgAwIBAgICEAkwDQYJKoZIhvcNAQELBQAwKDESMBAGA1UEChMJTm9k
ZU9QQ1VBMRIwEAYDVQQDEwlOb2RlT1BDVUEwIhgPMjAxODA5MDMxMDQzMzNaGA8y
MDE5MDkwMzEwNDMzM1owKDESMBAGA1UEChMJTm9kZU9QQ1VBMRIwEAYDVQQDEwlO
b2RlT1BDVUEwgZ8wDQYJKoZIhvcNAQEBBQADgY0AMIGJAoGBANVYc1w0hZ6vYwJI
H4OtK9951AmgAg3/IXhwfWu6GlnhsNWlrQlMZXEAteR+NCegAdMf1nrJDHYWrDno
mTSKW9rETIKxMPedc7wcZLEMSBSVcKLSEiL4qymuad7PKdcgOsqb3BE6BbmKVUhE
Ud3weaTMoERV4pvzVuLy8Y/ulJNPAgMBAAGjggE6MIIBNjAMBgNVHRMBAf8EAjAA
MB0GA1UdDgQWBBRXw3TrU6CZo0eO26I4jfRYFyVCizBRBgNVHSMESjBIgBRXw3Tr
U6CZo0eO26I4jfRYFyVCi6EspCowKDESMBAGA1UEChMJTm9kZU9QQ1VBMRIwEAYD
VQQDEwlOb2RlT1BDVUGCAhAJMFQGA1UdEQRNMEuGLXVybjpOQjVEU0NSNTAzMTkx
TkI6Tm9kZU9QQ1VBLURpc2NvdmVyeVNlcnZlcoIJbG9jYWxob3N0gg9OQjVEU0NS
NTAzMTkxTkIwLAYJYIZIAYb4QgENBB8WHU9wZW5TU0wgR2VuZXJhdGVkIENlcnRp
ZmljYXRlMA4GA1UdDwEB/wQEAwIC/DAgBgNVHSUBAf8EFjAUBggrBgEFBQcDAQYI
KwYBBQUHAwIwDQYJKoZIhvcNAQELBQADgYEAV3JoiCihXvRdmWZ++nNuiacc+W69
LbcrPj1YBKigweLlFQnv1hCR2gACM/HAAJrdDa+zshksM5EQDQsWnVzec0Dls/Es
OTkz52QAM+MXcwd147GsNLUwOY+wqCLcRUJRgYGWj82ptquBdEnXVBXy+inG8mDm
G3Y0IOSN0QHBN3g=
-----END CERTIFICATE-----
