Certificate Request:
    Data:
        Version: 0 (0x0)
        Subject: C=FR, O=NodeOPCUA, CN=NodeOPCUA
        Subject Public Key Info:
            Public Key Algorithm: rsaEncryption
                Public-Key: (2048 bit)
                Modulus:
                    00:d0:0d:6d:c1:62:1f:05:bf:7e:cc:96:b0:8a:67:
                    0a:5f:69:b6:fd:b8:9e:03:f2:40:71:db:2f:33:a8:
                    29:d5:2d:f2:15:5c:85:39:12:54:5b:0a:f3:89:b5:
                    5c:ef:5d:49:13:92:b1:8e:89:f6:a3:fc:8d:2c:84:
                    76:74:91:f5:e3:d9:3b:54:de:24:6e:41:25:96:5e:
                    75:46:e0:97:fe:40:c1:12:af:a7:64:43:6f:1d:95:
                    6a:f6:dc:41:17:3b:7f:54:25:f9:8d:b8:1c:e5:6c:
                    d4:56:a6:cd:d7:8d:24:15:03:07:62:31:de:3a:bf:
                    d9:79:06:72:ab:d6:95:39:71:d5:6a:56:07:fa:69:
                    38:f1:0e:a7:a7:a8:d7:f8:cf:37:72:fe:be:7f:66:
                    7f:96:a5:ab:01:e0:0f:90:ba:a2:68:0d:d6:49:5d:
                    45:fb:93:9f:66:08:d7:b6:a8:2d:6a:57:e4:f3:80:
                    f3:43:93:0a:e3:f2:46:a9:ae:10:76:8c:e3:56:97:
                    8a:07:be:fc:30:6e:d8:9b:13:aa:1f:38:ca:ad:4f:
                    72:33:9e:2d:8c:60:b8:8e:16:88:4c:1b:aa:f3:c6:
                    46:4e:4a:29:d4:8f:7c:43:d5:94:2b:d2:ea:56:90:
                    a0:6e:cd:24:1b:b3:5f:d8:ba:31:27:17:a6:02:d9:
                    61:df
                Exponent: 65537 (0x10001)
        Attributes:
        Requested Extensions:
            X509v3 Basic Constraints: 
                CA:FALSE
            X509v3 Key Usage: critical
                Certificate Sign, CRL Sign
            X509v3 Subject Alternative Name: 
                URI:undefined
    Signature Algorithm: sha256WithRSAEncryption
         44:8c:3e:cf:0b:7e:94:4a:66:a8:9c:5b:80:00:2e:62:f1:17:
         0d:40:59:e2:f1:c1:53:13:ac:f4:3f:b7:78:f6:00:43:b9:04:
         c6:51:63:00:b0:1d:af:96:77:69:ca:50:96:4c:64:38:50:1f:
         4e:3f:28:47:ba:97:c0:26:2c:23:50:6a:35:e8:32:fc:c7:ff:
         45:8c:e2:cd:02:ce:c9:a2:af:4d:dc:c6:b6:35:f0:1b:f2:33:
         0c:26:64:95:bc:48:60:92:bc:4f:d4:13:09:e9:44:a6:26:58:
         01:68:f7:64:f9:e6:24:41:f3:9b:85:0a:4f:d1:40:56:ff:d3:
         dd:ee:09:d4:02:4d:aa:7c:e4:45:e2:d4:dc:30:16:39:13:c6:
         e3:7a:15:bd:77:d7:2a:6c:dc:a1:2a:af:6e:a4:06:44:f1:bc:
         df:cb:5d:64:0f:62:d4:a5:9f:4c:a8:1a:84:dd:ea:ea:64:31:
         b9:42:79:3a:cd:14:82:2e:14:c8:52:72:bf:e3:b8:f3:87:8c:
         e2:79:3c:15:9d:0e:93:ef:ed:72:08:9a:c2:71:77:8d:d6:3f:
         e5:31:d1:87:35:6e:f7:14:06:dd:dc:61:c1:83:e9:4b:39:80:
         7e:57:93:51:b0:a5:c8:52:f2:47:b5:78:31:ab:0b:b0:f7:d6:
         40:d0:4e:30
-----BEGIN CERTIFICATE REQUEST-----
MIICvDCCAaQCAQAwNTELMAkGA1UEBhMCRlIxEjAQBgNVBAoMCU5vZGVPUENVQTES
MBAGA1UEAwwJTm9kZU9QQ1VBMIIBIjANBgkqhkiG9w0BAQEFAAOCAQ8AMIIBCgKC
AQEA0A1twWIfBb9+zJawimcKX2m2/bieA/JAcdsvM6gp1S3yFVyFORJUWwrzibVc
711JE5Kxjon2o/yNLIR2dJH149k7VN4kbkElll51RuCX/kDBEq+nZENvHZVq9txB
Fzt/VCX5jbgc5WzUVqbN140kFQMHYjHeOr/ZeQZyq9aVOXHValYH+mk48Q6np6jX
+M83cv6+f2Z/lqWrAeAPkLqiaA3WSV1F+5OfZgjXtqgtalfk84DzQ5MK4/JGqa4Q
dozjVpeKB778MG7YmxOqHzjKrU9yM54tjGC4jhaITBuq88ZGTkop1I98Q9WUK9Lq
VpCgbs0kG7Nf2LoxJxemAtlh3wIDAQABoEIwQAYJKoZIhvcNAQkOMTMwMTAJBgNV
HRMEAjAAMA4GA1UdDwEB/wQEAwIBBjAUBgNVHREEDTALhgl1bmRlZmluZWQwDQYJ
KoZIhvcNAQELBQADggEBAESMPs8LfpRKZqicW4AALmLxFw1AWeLxwVMTrPQ/t3j2
AEO5BMZRYwCwHa+Wd2nKUJZMZDhQH04/KEe6l8AmLCNQajXoMvzH/0WM4s0Czsmi
r03cxrY18BvyMwwmZJW8SGCSvE/UEwnpRKYmWAFo92T55iRB85uFCk/RQFb/093u
CdQCTap85EXi1NwwFjkTxuN6Fb131yps3KEqr26kBkTxvN/LXWQPYtSln0yoGoTd
6upkMblCeTrNFIIuFMhScr/juPOHjOJ5PBWdDpPv7XIImsJxd43WP+Ux0Yc1bvcU
Bt3cYcGD6Us5gH5Xk1GwpchS8ke1eDGrC7D31kDQTjA=
-----END CERTIFICATE REQUEST-----
