Certificate:
    Data:
        Version: 3 (0x2)
        Serial Number: 4100 (0x1004)
    Signature Algorithm: sha256WithRSAEncryption
        Issuer: C=FR, ST=IDF, L=Paris, O=Local NODE-OPCUA Certificate Authority, CN=NodeOPCUA-CA
        Validity
            Not Before: Aug 28 11:14:05 2017 GMT
            Not After : Aug 28 11:14:05 2018 GMT
        Subject: C=FR, O=NodeOPCUA, CN=NodeOPCUA
        Subject Public Key Info:
            Public Key Algorithm: rsaEncryption
                Public-Key: (1024 bit)
                Modulus:
                    00:d7:76:ff:fc:92:76:b5:ba:5d:6b:08:d5:bb:24:
                    11:fa:30:91:b1:3c:4d:6b:27:c8:f6:3f:48:ca:d8:
                    50:30:0e:6b:5c:5a:a1:64:34:92:fc:2a:c8:e9:30:
                    1f:30:a5:4c:94:c0:a7:25:f2:19:ca:32:42:76:f4:
                    81:c4:41:6f:0c:9a:38:d3:93:bc:bf:4d:21:63:14:
                    47:98:db:0a:24:85:75:77:d2:99:03:02:6f:cb:f6:
                    9e:84:dc:e9:c1:ae:70:bd:a7:6d:3c:26:cc:e1:9f:
                    44:7b:6b:df:32:55:f0:af:f7:a0:51:aa:64:35:87:
                    3c:bd:81:e4:1e:c1:66:94:2d
                Exponent: 65537 (0x10001)
        X509v3 extensions:
            X509v3 Basic Constraints: critical
                CA:FALSE
            X509v3 Subject Key Identifier: 
                C7:42:8D:BB:B1:0E:68:95:5E:CC:31:56:64:FE:C5:93:FA:63:8D:8C
            X509v3 Authority Key Identifier: 
                keyid:76:2A:71:9E:BC:6F:90:D6:D8:9A:DD:14:DE:DC:7B:D2:9C:55:C3:24
                DirName:/C=FR/ST=IDF/L=Paris/O=Local NODE-OPCUA Certificate Authority/CN=NodeOPCUA-CA
                serial:F9:A7:8A:6B:15:59:CE:15

            X509v3 Subject Alternative Name: 
                URI:urn:NB5DSCR503191NB:NodeOPCUA-Server, DNS:localhost, DNS:NB5DSCR503191NB
            Netscape Comment: 
                OpenSSL Generated Certificate
            X509v3 Key Usage: critical
                Digital Signature, Non Repudiation, Key Encipherment, Data Encipherment, Key Agreement, Certificate Sign
            X509v3 Extended Key Usage: critical
                TLS Web Server Authentication, TLS Web Client Authentication
    Signature Algorithm: sha256WithRSAEncryption
         27:db:98:c1:e9:07:c8:b8:36:d6:a4:6d:9e:d3:01:91:7b:ff:
         8a:b2:a0:19:08:07:02:6b:20:09:49:4d:2d:00:19:c8:03:e6:
         f3:7e:69:cf:ed:6c:10:a4:36:98:85:9b:af:b5:47:c3:85:c3:
         93:39:b0:df:8d:5f:09:40:dc:99:89:c6:5e:af:77:08:1b:a8:
         81:a3:09:16:70:d7:29:ec:c1:53:e7:68:ef:5d:b6:5d:cb:70:
         64:1a:16:68:1c:31:23:50:e4:26:fe:67:bb:66:f5:6f:ca:c4:
         8c:df:21:25:38:37:9f:6f:90:ca:66:e2:b6:25:27:26:8f:96:
         85:f2:c1:bf:27:45:aa:d1:01:3a:17:13:15:11:59:53:94:68:
         00:da:e3:92:60:32:95:59:dc:60:32:f6:f2:32:4f:71:99:db:
         81:f6:5c:51:32:71:1b:9f:c1:b3:08:d6:7b:a1:30:d1:0a:20:
         78:9e:93:6a:9b:55:99:9f:30:d2:95:fe:75:ce:a8:cb:89:2f:
         22:ee:57:02:87:41:55:ea:62:8c:d3:ea:37:01:ae:25:4f:69:
         7c:61:38:8b:3f:c9:d5:93:47:23:c4:f2:f5:59:4c:cf:14:9a:
         3c:15:2d:db:4c:25:7c:70:4c:7b:e8:02:43:50:2a:e1:ac:9a:
         5e:6a:8d:2e
-----BEGIN CERTIFICATE-----
MIIELDCCAxSgAwIBAgICEAQwDQYJKoZIhvcNAQELBQAwczELMAkGA1UEBhMCRlIx
DDAKBgNVBAgTA0lERjEOMAwGA1UEBxMFUGFyaXMxLzAtBgNVBAoTJkxvY2FsIE5P
REUtT1BDVUEgQ2VydGlmaWNhdGUgQXV0aG9yaXR5MRUwEwYDVQQDEwxOb2RlT1BD
VUEtQ0EwIhgPMjAxNzA4MjgxMTE0MDVaGA8yMDE4MDgyODExMTQwNVowNTELMAkG
A1UEBhMCRlIxEjAQBgNVBAoMCU5vZGVPUENVQTESMBAGA1UEAwwJTm9kZU9QQ1VB
MIGfMA0GCSqGSIb3DQEBAQUAA4GNADCBiQKBgQDXdv/8kna1ul1rCNW7JBH6MJGx
PE1rJ8j2P0jK2FAwDmtcWqFkNJL8KsjpMB8wpUyUwKcl8hnKMkJ29IHEQW8MmjjT
k7y/TSFjFEeY2wokhXV30pkDAm/L9p6E3OnBrnC9p208Jszhn0R7a98yVfCv96BR
qmQ1hzy9geQewWaULQIDAQABo4IBhjCCAYIwDAYDVR0TAQH/BAIwADAdBgNVHQ4E
FgQUx0KNu7EOaJVezDFWZP7Fk/pjjYwwgaUGA1UdIwSBnTCBmoAUdipxnrxvkNbY
mt0U3tx70pxVwyShd6R1MHMxCzAJBgNVBAYTAkZSMQwwCgYDVQQIEwNJREYxDjAM
BgNVBAcTBVBhcmlzMS8wLQYDVQQKEyZMb2NhbCBOT0RFLU9QQ1VBIENlcnRpZmlj
YXRlIEF1dGhvcml0eTEVMBMGA1UEAxMMTm9kZU9QQ1VBLUNBggkA+aeKaxVZzhUw
SwYDVR0RBEQwQoYkdXJuOk5CNURTQ1I1MDMxOTFOQjpOb2RlT1BDVUEtU2VydmVy
gglsb2NhbGhvc3SCD05CNURTQ1I1MDMxOTFOQjAsBglghkgBhvhCAQ0EHxYdT3Bl
blNTTCBHZW5lcmF0ZWQgQ2VydGlmaWNhdGUwDgYDVR0PAQH/BAQDAgL8MCAGA1Ud
JQEB/wQWMBQGCCsGAQUFBwMBBggrBgEFBQcDAjANBgkqhkiG9w0BAQsFAAOCAQEA
J9uYwekHyLg21qRtntMBkXv/irKgGQgHAmsgCUlNLQAZyAPm835pz+1sEKQ2mIWb
r7VHw4XDkzmw341fCUDcmYnGXq93CBuogaMJFnDXKezBU+do7122XctwZBoWaBwx
I1DkJv5nu2b1b8rEjN8hJTg3n2+QymbitiUnJo+WhfLBvydFqtEBOhcTFRFZU5Ro
ANrjkmAylVncYDL28jJPcZnbgfZcUTJxG5/BswjWe6Ew0QogeJ6TaptVmZ8w0pX+
dc6oy4kvIu5XAodBVepijNPqNwGuJU9pfGE4iz/J1ZNHI8Ty9VlMzxSaPBUt20wl
fHBMe+gCQ1Aq4ayaXmqNLg==
-----END CERTIFICATE-----
-----BEGIN CERTIFICATE-----
MIIE3TCCA8WgAwIBAgIJAPmnimsVWc4VMA0GCSqGSIb3DQEBCwUAMHMxCzAJBgNV
BAYTAkZSMQwwCgYDVQQIEwNJREYxDjAMBgNVBAcTBVBhcmlzMS8wLQYDVQQKEyZM
b2NhbCBOT0RFLU9QQ1VBIENlcnRpZmljYXRlIEF1dGhvcml0eTEVMBMGA1UEAxMM
Tm9kZU9QQ1VBLUNBMB4XDTE3MDgyOTExMTQxMVoXDTI3MDgyNzExMTQxMVowczEL
MAkGA1UEBhMCRlIxDDAKBgNVBAgTA0lERjEOMAwGA1UEBxMFUGFyaXMxLzAtBgNV
BAoTJkxvY2FsIE5PREUtT1BDVUEgQ2VydGlmaWNhdGUgQXV0aG9yaXR5MRUwEwYD
VQQDEwxOb2RlT1BDVUEtQ0EwggEiMA0GCSqGSIb3DQEBAQUAA4IBDwAwggEKAoIB
AQCruHUuOjcrJKw+ykH8xh7Py0c7WM3Wzdfe0vpXJgVBBLiHVt1Hlwd/OS54FE8T
cjUGTTGGF0O7rdLkzQaW6SmmbwMUaovsaMRjiWtZgoPdN56UydUYQ9FYynNVcVNC
sI0t9yKUh++No1bJoa0BUtL6/Z/miGCJ4sSZNY29NA0WQaC1UmGJ6Sac6w93/8wy
ON7VtJuooOvqSRp7hbucq34KODDR+ZvOM8F8hwO7UfpWutrxGkheiQiX3kbByu7c
/IFnza3IicZhcxiARVtbypWpGqNZKbM5u3EugC687Bv533JRJ3zn3zRbXfb3L/NF
c3biMa27xUx8t9NicgwCefnxAgMBAAGjggFyMIIBbjAdBgNVHQ4EFgQUdipxnrxv
kNbYmt0U3tx70pxVwyQwgaUGA1UdIwSBnTCBmoAUdipxnrxvkNbYmt0U3tx70pxV
wyShd6R1MHMxCzAJBgNVBAYTAkZSMQwwCgYDVQQIEwNJREYxDjAMBgNVBAcTBVBh
cmlzMS8wLQYDVQQKEyZMb2NhbCBOT0RFLU9QQ1VBIENlcnRpZmljYXRlIEF1dGhv
cml0eTEVMBMGA1UEAxMMTm9kZU9QQ1VBLUNBggkA+aeKaxVZzhUwDAYDVR0TBAUw
AwEB/zAOBgNVHQ8BAf8EBAMCAQYwVwYJYIZIAYb4QgENBEoWSENBIENlcnRpZmlj
YXRlIGdlbmVyYXRlZCBieSBOb2RlLU9QQ1VBIENlcnRpZmljYXRlIHV0aWxpdHkg
dXNpbmcgb3BlbnNzbDAuBgNVHR8EJzAlMCOgIaAfhh1odHRwOi8vbG9jYWxob3N0
Ojg5MDAvY3JsLnBlbTANBgkqhkiG9w0BAQsFAAOCAQEAovaCuCWSYZtb5BW8oABL
n3iaHj8nQQM7exs4uJ0pK5PwOxv63Hv3bCuraxF0u6gA3VODv/NbapxGrlAyR4e/
RflYbTKb1HQxjIxtS3geRBBdrg0Fz9BEONag1s/Ou/3uWarZoUVKZ7UI1ZrDSzEI
Z+1P9MmtyqKR26AySB/M9LUTEPbxtqRaltnkCUpR4ptQFAS53Ng+34BeVzVf9tAQ
TbHAqJT6y6domjviM0ggat2MsDhlgk7xqtNGzi4+JN8J7u1MTLcxcH0qzjF/2L99
l1VVRqF4YirJfwfDlIQzyBSVYqJYCHyqeq9eRl5sa8ehPsLItqpZL8LCk7BxQM8f
sA==
-----END CERTIFICATE-----
