Certificate Request:
    Data:
        Version: 0 (0x0)
        Subject: C=FR, O=NodeOPCUA, CN=NodeOPCUA
        Subject Public Key Info:
            Public Key Algorithm: rsaEncryption
                Public-Key: (1024 bit)
                Modulus:
                    00:d7:76:ff:fc:92:76:b5:ba:5d:6b:08:d5:bb:24:
                    11:fa:30:91:b1:3c:4d:6b:27:c8:f6:3f:48:ca:d8:
                    50:30:0e:6b:5c:5a:a1:64:34:92:fc:2a:c8:e9:30:
                    1f:30:a5:4c:94:c0:a7:25:f2:19:ca:32:42:76:f4:
                    81:c4:41:6f:0c:9a:38:d3:93:bc:bf:4d:21:63:14:
                    47:98:db:0a:24:85:75:77:d2:99:03:02:6f:cb:f6:
                    9e:84:dc:e9:c1:ae:70:bd:a7:6d:3c:26:cc:e1:9f:
                    44:7b:6b:df:32:55:f0:af:f7:a0:51:aa:64:35:87:
                    3c:bd:81:e4:1e:c1:66:94:2d
                Exponent: 65537 (0x10001)
        Attributes:
        Requested Extensions:
            X509v3 Basic Constraints: 
                CA:FALSE
            X509v3 Key Usage: critical
                Certificate Sign, CRL Sign
            X509v3 Subject Alternative Name: 
                URI:undefined
    Signature Algorithm: sha256WithRSAEncryption
         5f:b8:2e:21:17:33:83:c1:75:1f:9b:41:fa:2b:0e:d0:38:e3:
         3e:5c:ef:49:43:45:54:e4:4d:4a:1d:62:55:34:24:0c:10:c1:
         49:b7:01:5a:89:5b:32:08:d9:01:81:73:5a:93:32:4c:b8:a2:
         eb:72:9c:04:a2:eb:19:5a:d6:01:45:bc:d9:f9:21:15:2a:ba:
         cd:40:c1:b1:cc:6b:ad:b2:39:a2:d7:12:14:d9:d7:9f:ee:62:
         2d:78:3f:6f:8f:62:32:14:ab:72:5e:50:2c:d1:90:d2:e5:4f:
         59:c2:6e:a9:26:0b:6d:0d:1d:6f:c4:ae:47:d5:7b:26:ca:bd:
         80:fe
-----BEGIN CERTIFICATE REQUEST-----
MIIBtzCCASACAQAwNTELMAkGA1UEBhMCRlIxEjAQBgNVBAoMCU5vZGVPUENVQTES
MBAGA1UEAwwJTm9kZU9QQ1VBMIGfMA0GCSqGSIb3DQEBAQUAA4GNADCBiQKBgQDX
dv/8kna1ul1rCNW7JBH6MJGxPE1rJ8j2P0jK2FAwDmtcWqFkNJL8KsjpMB8wpUyU
wKcl8hnKMkJ29IHEQW8MmjjTk7y/TSFjFEeY2wokhXV30pkDAm/L9p6E3OnBrnC9
p208Jszhn0R7a98yVfCv96BRqmQ1hzy9geQewWaULQIDAQABoEIwQAYJKoZIhvcN
AQkOMTMwMTAJBgNVHRMEAjAAMA4GA1UdDwEB/wQEAwIBBjAUBgNVHREEDTALhgl1
bmRlZmluZWQwDQYJKoZIhvcNAQELBQADgYEAX7guIRczg8F1H5tB+isO0DjjPlzv
SUNFVORNSh1iVTQkDBDBSbcBWolbMgjZAYFzWpMyTLii63KcBKLrGVrWAUW82fkh
FSq6zUDBscxrrbI5otcSFNnXn+5iLXg/b49iMhSrcl5QLNGQ0uVPWcJuqSYLbQ0d
b8SuR9V7Jsq9gP4=
-----END CERTIFICATE REQUEST-----
