Certificate:
    Data:
        Version: 3 (0x2)
        Serial Number: 4102 (0x1006)
    Signature Algorithm: sha256WithRSAEncryption
        Issuer: C=FR, ST=IDF, L=Paris, O=Local NODE-OPCUA Certificate Authority, CN=NodeOPCUA-CA
        Validity
            Not Before: Aug 28 11:14:05 2017 GMT
            Not After : Aug 28 11:14:05 2018 GMT
        Subject: C=FR, O=NodeOPCUA, CN=NodeOPCUA
        Subject Public Key Info:
            Public Key Algorithm: rsaEncryption
                Public-Key: (2048 bit)
                Modulus:
                    00:b6:5d:60:6b:c1:db:aa:b6:69:c2:f8:91:50:05:
                    6c:1e:67:fd:96:06:c7:f6:6b:ed:bd:fc:c0:c8:02:
                    d5:1b:84:f4:55:a7:3d:50:9c:34:1a:89:dd:da:3a:
                    de:a9:75:69:f9:72:1d:7d:16:3b:f5:45:73:22:f7:
                    36:74:1b:cb:dc:c7:9e:7e:4c:72:a8:ec:4e:84:67:
                    33:7e:4c:63:a7:fc:76:7b:99:fe:10:fa:02:b1:eb:
                    61:a9:c0:4f:97:91:c1:26:29:25:92:7b:9b:56:4b:
                    15:15:2a:4f:fe:17:72:96:4d:4f:89:fe:0e:98:ac:
                    ba:35:3f:d5:42:da:e8:f9:43:b0:15:1a:dd:ff:79:
                    70:96:62:12:a0:d0:cd:64:f4:d8:61:2b:d7:2a:46:
                    f4:b4:d6:b2:c4:b1:e1:ab:ac:10:a6:2c:cf:c6:df:
                    dd:00:a0:0d:04:21:69:06:80:ad:43:c7:28:91:f5:
                    4e:c0:6a:39:13:84:f5:e7:9c:57:57:f1:11:af:15:
                    dc:5a:44:36:08:e8:df:3b:f8:7e:14:18:a7:94:20:
                    e2:07:bc:e8:b3:45:8d:2d:d7:99:99:a8:e4:59:43:
                    c1:81:7a:91:2f:bc:16:4c:0b:58:07:63:0a:ed:85:
                    43:cb:d1:b2:57:c2:ff:2e:11:78:10:c9:78:89:94:
                    d4:41
                Exponent: 65537 (0x10001)
        X509v3 extensions:
            X509v3 Basic Constraints: critical
                CA:FALSE
            X509v3 Subject Key Identifier: 
                93:2E:94:9B:DF:8C:4F:DB:B4:17:49:27:3D:90:93:87:0B:B8:1D:53
            X509v3 Authority Key Identifier: 
                keyid:76:2A:71:9E:BC:6F:90:D6:D8:9A:DD:14:DE:DC:7B:D2:9C:55:C3:24
                DirName:/C=FR/ST=IDF/L=Paris/O=Local NODE-OPCUA Certificate Authority/CN=NodeOPCUA-CA
                serial:F9:A7:8A:6B:15:59:CE:15

            X509v3 Subject Alternative Name: 
                URI:urn:NB5DSCR503191NB:NodeOPCUA-Server, DNS:localhost, DNS:NB5DSCR503191NB
            Netscape Comment: 
                OpenSSL Generated Certificate
            X509v3 Key Usage: critical
                Digital Signature, Non Repudiation, Key Encipherment, Data Encipherment, Key Agreement, Certificate Sign
            X509v3 Extended Key Usage: critical
                TLS Web Server Authentication, TLS Web Client Authentication
    Signature Algorithm: sha256WithRSAEncryption
         41:db:36:f8:e5:f1:ab:b2:c3:0a:9f:8b:db:f6:82:82:8f:7d:
         3e:c7:5d:3b:5a:0d:26:a1:69:33:6c:8a:e8:d2:24:23:78:45:
         3a:66:64:71:c2:ea:80:19:47:8f:3c:41:95:c7:15:76:00:6c:
         de:6d:47:4d:90:6f:61:3e:27:b3:bb:1f:47:45:bc:07:17:ed:
         ae:ac:16:be:66:ef:a6:dd:31:6d:14:40:ba:8f:e1:cd:76:48:
         2a:14:bd:48:dd:ab:b3:29:45:cc:a2:e0:9a:34:23:34:bd:3c:
         48:65:7d:07:12:61:40:72:b7:8d:f0:d3:81:e2:33:23:00:d8:
         3d:1e:05:d0:fd:1a:9f:37:16:4b:10:35:45:98:c9:fe:84:7f:
         16:de:1b:22:2b:62:bc:be:2e:25:27:fb:18:3f:09:7d:dc:cf:
         d7:d1:cd:f0:90:d2:1d:fa:67:e2:c9:f0:35:87:be:5b:94:ca:
         cd:51:64:f5:0a:2b:d9:dd:53:40:d2:50:69:ea:4a:1a:b6:f2:
         a9:e4:91:9b:5d:9a:66:55:05:9b:7e:14:d1:88:12:b6:21:8d:
         1d:d6:3a:9c:33:e9:af:21:21:55:17:03:ec:17:8d:d8:f9:17:
         c1:7c:c4:46:80:3d:a6:cf:2a:76:03:55:a0:82:6e:6d:26:03:
         0e:75:9d:bd
-----BEGIN CERTIFICATE-----
MIIEsDCCA5igAwIBAgICEAYwDQYJKoZIhvcNAQELBQAwczELMAkGA1UEBhMCRlIx
DDAKBgNVBAgTA0lERjEOMAwGA1UEBxMFUGFyaXMxLzAtBgNVBAoTJkxvY2FsIE5P
REUtT1BDVUEgQ2VydGlmaWNhdGUgQXV0aG9yaXR5MRUwEwYDVQQDEwxOb2RlT1BD
VUEtQ0EwIhgPMjAxNzA4MjgxMTE0MDVaGA8yMDE4MDgyODExMTQwNVowNTELMAkG
A1UEBhMCRlIxEjAQBgNVBAoMCU5vZGVPUENVQTESMBAGA1UEAwwJTm9kZU9QQ1VB
MIIBIjANBgkqhkiG9w0BAQEFAAOCAQ8AMIIBCgKCAQEAtl1ga8HbqrZpwviRUAVs
Hmf9lgbH9mvtvfzAyALVG4T0Vac9UJw0Gond2jreqXVp+XIdfRY79UVzIvc2dBvL
3MeefkxyqOxOhGczfkxjp/x2e5n+EPoCsethqcBPl5HBJiklknubVksVFSpP/hdy
lk1Pif4OmKy6NT/VQtro+UOwFRrd/3lwlmISoNDNZPTYYSvXKkb0tNayxLHhq6wQ
pizPxt/dAKANBCFpBoCtQ8cokfVOwGo5E4T155xXV/ERrxXcWkQ2COjfO/h+FBin
lCDiB7zos0WNLdeZmajkWUPBgXqRL7wWTAtYB2MK7YVDy9GyV8L/LhF4EMl4iZTU
QQIDAQABo4IBhjCCAYIwDAYDVR0TAQH/BAIwADAdBgNVHQ4EFgQUky6Um9+MT9u0
F0knPZCThwu4HVMwgaUGA1UdIwSBnTCBmoAUdipxnrxvkNbYmt0U3tx70pxVwySh
d6R1MHMxCzAJBgNVBAYTAkZSMQwwCgYDVQQIEwNJREYxDjAMBgNVBAcTBVBhcmlz
MS8wLQYDVQQKEyZMb2NhbCBOT0RFLU9QQ1VBIENlcnRpZmljYXRlIEF1dGhvcml0
eTEVMBMGA1UEAxMMTm9kZU9QQ1VBLUNBggkA+aeKaxVZzhUwSwYDVR0RBEQwQoYk
dXJuOk5CNURTQ1I1MDMxOTFOQjpOb2RlT1BDVUEtU2VydmVygglsb2NhbGhvc3SC
D05CNURTQ1I1MDMxOTFOQjAsBglghkgBhvhCAQ0EHxYdT3BlblNTTCBHZW5lcmF0
ZWQgQ2VydGlmaWNhdGUwDgYDVR0PAQH/BAQDAgL8MCAGA1UdJQEB/wQWMBQGCCsG
AQUFBwMBBggrBgEFBQcDAjANBgkqhkiG9w0BAQsFAAOCAQEAQds2+OXxq7LDCp+L
2/aCgo99PsddO1oNJqFpM2yK6NIkI3hFOmZkccLqgBlHjzxBlccVdgBs3m1HTZBv
YT4ns7sfR0W8BxftrqwWvmbvpt0xbRRAuo/hzXZIKhS9SN2rsylFzKLgmjQjNL08
SGV9BxJhQHK3jfDTgeIzIwDYPR4F0P0anzcWSxA1RZjJ/oR/Ft4bIitivL4uJSf7
GD8JfdzP19HN8JDSHfpn4snwNYe+W5TKzVFk9Qor2d1TQNJQaepKGrbyqeSRm12a
ZlUFm34U0YgStiGNHdY6nDPpryEhVRcD7BeN2PkXwXzERoA9ps8qdgNVoIJubSYD
DnWdvQ==
-----END CERTIFICATE-----
-----BEGIN CERTIFICATE-----
MIIE3TCCA8WgAwIBAgIJAPmnimsVWc4VMA0GCSqGSIb3DQEBCwUAMHMxCzAJBgNV
BAYTAkZSMQwwCgYDVQQIEwNJREYxDjAMBgNVBAcTBVBhcmlzMS8wLQYDVQQKEyZM
b2NhbCBOT0RFLU9QQ1VBIENlcnRpZmljYXRlIEF1dGhvcml0eTEVMBMGA1UEAxMM
Tm9kZU9QQ1VBLUNBMB4XDTE3MDgyOTExMTQxMVoXDTI3MDgyNzExMTQxMVowczEL
MAkGA1UEBhMCRlIxDDAKBgNVBAgTA0lERjEOMAwGA1UEBxMFUGFyaXMxLzAtBgNV
BAoTJkxvY2FsIE5PREUtT1BDVUEgQ2VydGlmaWNhdGUgQXV0aG9yaXR5MRUwEwYD
VQQDEwxOb2RlT1BDVUEtQ0EwggEiMA0GCSqGSIb3DQEBAQUAA4IBDwAwggEKAoIB
AQCruHUuOjcrJKw+ykH8xh7Py0c7WM3Wzdfe0vpXJgVBBLiHVt1Hlwd/OS54FE8T
cjUGTTGGF0O7rdLkzQaW6SmmbwMUaovsaMRjiWtZgoPdN56UydUYQ9FYynNVcVNC
sI0t9yKUh++No1bJoa0BUtL6/Z/miGCJ4sSZNY29NA0WQaC1UmGJ6Sac6w93/8wy
ON7VtJuooOvqSRp7hbucq34KODDR+ZvOM8F8hwO7UfpWutrxGkheiQiX3kbByu7c
/IFnza3IicZhcxiARVtbypWpGqNZKbM5u3EugC687Bv533JRJ3zn3zRbXfb3L/NF
c3biMa27xUx8t9NicgwCefnxAgMBAAGjggFyMIIBbjAdBgNVHQ4EFgQUdipxnrxv
kNbYmt0U3tx70pxVwyQwgaUGA1UdIwSBnTCBmoAUdipxnrxvkNbYmt0U3tx70pxV
wyShd6R1MHMxCzAJBgNVBAYTAkZSMQwwCgYDVQQIEwNJREYxDjAMBgNVBAcTBVBh
cmlzMS8wLQYDVQQKEyZMb2NhbCBOT0RFLU9QQ1VBIENlcnRpZmljYXRlIEF1dGhv
cml0eTEVMBMGA1UEAxMMTm9kZU9QQ1VBLUNBggkA+aeKaxVZzhUwDAYDVR0TBAUw
AwEB/zAOBgNVHQ8BAf8EBAMCAQYwVwYJYIZIAYb4QgENBEoWSENBIENlcnRpZmlj
YXRlIGdlbmVyYXRlZCBieSBOb2RlLU9QQ1VBIENlcnRpZmljYXRlIHV0aWxpdHkg
dXNpbmcgb3BlbnNzbDAuBgNVHR8EJzAlMCOgIaAfhh1odHRwOi8vbG9jYWxob3N0
Ojg5MDAvY3JsLnBlbTANBgkqhkiG9w0BAQsFAAOCAQEAovaCuCWSYZtb5BW8oABL
n3iaHj8nQQM7exs4uJ0pK5PwOxv63Hv3bCuraxF0u6gA3VODv/NbapxGrlAyR4e/
RflYbTKb1HQxjIxtS3geRBBdrg0Fz9BEONag1s/Ou/3uWarZoUVKZ7UI1ZrDSzEI
Z+1P9MmtyqKR26AySB/M9LUTEPbxtqRaltnkCUpR4ptQFAS53Ng+34BeVzVf9tAQ
TbHAqJT6y6domjviM0ggat2MsDhlgk7xqtNGzi4+JN8J7u1MTLcxcH0qzjF/2L99
l1VVRqF4YirJfwfDlIQzyBSVYqJYCHyqeq9eRl5sa8ehPsLItqpZL8LCk7BxQM8f
sA==
-----END CERTIFICATE-----
