Certificate Request:
    Data:
        Version: 0 (0x0)
        Subject: C=FR, O=NodeOPCUA, CN=NodeOPCUA
        Subject Public Key Info:
            Public Key Algorithm: rsaEncryption
                Public-Key: (2048 bit)
                Modulus:
                    00:b6:5d:60:6b:c1:db:aa:b6:69:c2:f8:91:50:05:
                    6c:1e:67:fd:96:06:c7:f6:6b:ed:bd:fc:c0:c8:02:
                    d5:1b:84:f4:55:a7:3d:50:9c:34:1a:89:dd:da:3a:
                    de:a9:75:69:f9:72:1d:7d:16:3b:f5:45:73:22:f7:
                    36:74:1b:cb:dc:c7:9e:7e:4c:72:a8:ec:4e:84:67:
                    33:7e:4c:63:a7:fc:76:7b:99:fe:10:fa:02:b1:eb:
                    61:a9:c0:4f:97:91:c1:26:29:25:92:7b:9b:56:4b:
                    15:15:2a:4f:fe:17:72:96:4d:4f:89:fe:0e:98:ac:
                    ba:35:3f:d5:42:da:e8:f9:43:b0:15:1a:dd:ff:79:
                    70:96:62:12:a0:d0:cd:64:f4:d8:61:2b:d7:2a:46:
                    f4:b4:d6:b2:c4:b1:e1:ab:ac:10:a6:2c:cf:c6:df:
                    dd:00:a0:0d:04:21:69:06:80:ad:43:c7:28:91:f5:
                    4e:c0:6a:39:13:84:f5:e7:9c:57:57:f1:11:af:15:
                    dc:5a:44:36:08:e8:df:3b:f8:7e:14:18:a7:94:20:
                    e2:07:bc:e8:b3:45:8d:2d:d7:99:99:a8:e4:59:43:
                    c1:81:7a:91:2f:bc:16:4c:0b:58:07:63:0a:ed:85:
                    43:cb:d1:b2:57:c2:ff:2e:11:78:10:c9:78:89:94:
                    d4:41
                Exponent: 65537 (0x10001)
        Attributes:
        Requested Extensions:
            X509v3 Basic Constraints: 
                CA:FALSE
            X509v3 Key Usage: critical
                Certificate Sign, CRL Sign
            X509v3 Subject Alternative Name: 
                URI:undefined
    Signature Algorithm: sha256WithRSAEncryption
         2e:4c:f0:4c:6a:87:cb:ae:52:ee:94:e4:d8:7e:a5:17:cf:db:
         e9:08:f9:6e:47:66:22:0d:00:95:be:e0:f8:8c:40:1c:24:7c:
         da:7e:0b:65:c5:42:34:b3:fc:82:2c:58:38:f5:e2:85:e5:dd:
         cc:66:d8:d0:c1:7a:8c:c4:b0:f2:f5:03:5b:5e:37:13:92:73:
         45:4d:5e:9e:dc:52:a3:27:6f:7c:93:63:12:93:30:db:7f:66:
         49:9f:0d:12:8c:bc:97:5a:a0:42:ad:38:bc:d6:d7:49:f8:11:
         49:13:e5:ad:e7:95:2d:51:93:1b:ec:0b:40:cd:2c:8b:77:ea:
         4d:52:1d:24:16:5f:74:83:bd:32:2c:57:1f:f7:e8:53:dc:8d:
         5f:51:23:3a:f1:5b:1e:a6:35:ae:c1:bd:18:a8:08:06:40:63:
         72:43:89:a0:67:a3:57:6d:8a:af:73:53:37:e7:01:66:4c:ea:
         a9:a1:73:36:26:68:ef:95:29:89:7f:83:68:19:61:ec:4f:3f:
         02:71:f1:43:d1:47:ae:5a:f8:82:4d:79:8f:8f:37:01:34:0c:
         10:10:e0:73:45:91:17:f6:c1:af:e0:f4:cb:02:d8:2d:20:14:
         8e:95:53:d0:85:d2:1a:a6:13:85:d2:ba:16:27:8e:55:f7:be:
         1c:56:2d:91
-----BEGIN CERTIFICATE REQUEST-----
MIICvDCCAaQCAQAwNTELMAkGA1UEBhMCRlIxEjAQBgNVBAoMCU5vZGVPUENVQTES
MBAGA1UEAwwJTm9kZU9QQ1VBMIIBIjANBgkqhkiG9w0BAQEFAAOCAQ8AMIIBCgKC
AQEAtl1ga8HbqrZpwviRUAVsHmf9lgbH9mvtvfzAyALVG4T0Vac9UJw0Gond2jre
qXVp+XIdfRY79UVzIvc2dBvL3MeefkxyqOxOhGczfkxjp/x2e5n+EPoCsethqcBP
l5HBJiklknubVksVFSpP/hdylk1Pif4OmKy6NT/VQtro+UOwFRrd/3lwlmISoNDN
ZPTYYSvXKkb0tNayxLHhq6wQpizPxt/dAKANBCFpBoCtQ8cokfVOwGo5E4T155xX
V/ERrxXcWkQ2COjfO/h+FBinlCDiB7zos0WNLdeZmajkWUPBgXqRL7wWTAtYB2MK
7YVDy9GyV8L/LhF4EMl4iZTUQQIDAQABoEIwQAYJKoZIhvcNAQkOMTMwMTAJBgNV
HRMEAjAAMA4GA1UdDwEB/wQEAwIBBjAUBgNVHREEDTALhgl1bmRlZmluZWQwDQYJ
KoZIhvcNAQELBQADggEBAC5M8Exqh8uuUu6U5Nh+pRfP2+kI+W5HZiINAJW+4PiM
QBwkfNp+C2XFQjSz/IIsWDj14oXl3cxm2NDBeozEsPL1A1teNxOSc0VNXp7cUqMn
b3yTYxKTMNt/ZkmfDRKMvJdaoEKtOLzW10n4EUkT5a3nlS1RkxvsC0DNLIt36k1S
HSQWX3SDvTIsVx/36FPcjV9RIzrxWx6mNa7BvRioCAZAY3JDiaBno1dtiq9zUzfn
AWZM6qmhczYmaO+VKYl/g2gZYexPPwJx8UPRR65a+IJNeY+PNwE0DBAQ4HNFkRf2
wa/g9MsC2C0gFI6VU9CF0hqmE4XSuhYnjlX3vhxWLZE=
-----END CERTIFICATE REQUEST-----
