Certificate Request:
    Data:
        Version: 0 (0x0)
        Subject: C=FR, O=NodeOPCUA, CN=NodeOPCUA
        Subject Public Key Info:
            Public Key Algorithm: rsaEncryption
                Public-Key: (1024 bit)
                Modulus:
                    00:e8:b9:79:f9:32:42:47:bf:20:16:27:69:70:49:
                    d6:28:fb:e7:2a:73:d8:bd:e1:d4:33:10:ab:ca:29:
                    c6:c8:4d:87:f1:72:6e:a8:43:0f:97:06:b5:eb:89:
                    9e:c4:86:65:db:f5:a5:69:c9:c6:8a:e3:84:95:e4:
                    35:1c:6f:0c:f4:cb:96:b6:f3:53:77:d0:d9:8e:5e:
                    52:cb:d7:a3:4d:5d:ab:74:ef:b4:f4:a9:10:e6:b0:
                    f0:48:73:1a:70:30:40:63:aa:ac:3c:94:7e:11:9e:
                    65:03:2d:23:2e:c0:8a:c4:dc:bd:d8:31:c1:7b:82:
                    03:e5:cc:65:1d:66:47:6b:23
                Exponent: 65537 (0x10001)
        Attributes:
        Requested Extensions:
            X509v3 Basic Constraints: 
                CA:FALSE
            X509v3 Key Usage: critical
                Certificate Sign, CRL Sign
            X509v3 Subject Alternative Name: 
                URI:undefined
    Signature Algorithm: sha256WithRSAEncryption
         7b:90:44:1d:f8:91:7a:6b:12:fa:a2:c6:33:7a:6e:2b:af:b0:
         97:b9:c6:f4:25:64:d5:c1:c5:bb:48:68:2e:87:71:41:ca:f4:
         5e:63:44:82:ed:b1:4c:98:03:d8:a1:53:62:df:28:c8:b3:a0:
         8d:0c:58:1c:ea:6e:39:6e:5a:a1:20:7c:af:2e:6e:17:c1:40:
         b6:73:93:c4:5b:2a:ed:05:12:10:14:4e:35:ee:3d:d3:e4:63:
         d8:f6:52:44:6e:76:0c:ff:61:11:51:56:1f:f5:f5:d2:64:5e:
         dd:d4:f3:41:4c:3e:70:43:25:ae:83:2f:e2:02:d0:8b:44:3d:
         8b:a4
-----BEGIN CERTIFICATE REQUEST-----
MIIBtzCCASACAQAwNTELMAkGA1UEBhMCRlIxEjAQBgNVBAoMCU5vZGVPUENVQTES
MBAGA1UEAwwJTm9kZU9QQ1VBMIGfMA0GCSqGSIb3DQEBAQUAA4GNADCBiQKBgQDo
uXn5MkJHvyAWJ2lwSdYo++cqc9i94dQzEKvKKcbITYfxcm6oQw+XBrXriZ7EhmXb
9aVpycaK44SV5DUcbwz0y5a281N30NmOXlLL16NNXat077T0qRDmsPBIcxpwMEBj
qqw8lH4RnmUDLSMuwIrE3L3YMcF7ggPlzGUdZkdrIwIDAQABoEIwQAYJKoZIhvcN
AQkOMTMwMTAJBgNVHRMEAjAAMA4GA1UdDwEB/wQEAwIBBjAUBgNVHREEDTALhgl1
bmRlZmluZWQwDQYJKoZIhvcNAQELBQADgYEAe5BEHfiRemsS+qLGM3puK6+wl7nG
9CVk1cHFu0hoLodxQcr0XmNEgu2xTJgD2KFTYt8oyLOgjQxYHOpuOW5aoSB8ry5u
F8FAtnOTxFsq7QUSEBRONe490+Rj2PZSRG52DP9hEVFWH/X10mRe3dTzQUw+cEMl
roMv4gLQi0Q9i6Q=
-----END CERTIFICATE REQUEST-----
