Certificate:
    Data:
        Version: 3 (0x2)
        Serial Number: 4101 (0x1005)
    Signature Algorithm: sha256WithRSAEncryption
        Issuer: O=NodeOPCUA, CN=NodeOPCUA
        Validity
            Not Before: Aug 28 11:14:05 2017 GMT
            Not After : Aug 28 11:14:05 2018 GMT
        Subject: O=NodeOPCUA, CN=NodeOPCUA
        Subject Public Key Info:
            Public Key Algorithm: rsaEncryption
                Public-Key: (1024 bit)
                Modulus:
                    00:d7:76:ff:fc:92:76:b5:ba:5d:6b:08:d5:bb:24:
                    11:fa:30:91:b1:3c:4d:6b:27:c8:f6:3f:48:ca:d8:
                    50:30:0e:6b:5c:5a:a1:64:34:92:fc:2a:c8:e9:30:
                    1f:30:a5:4c:94:c0:a7:25:f2:19:ca:32:42:76:f4:
                    81:c4:41:6f:0c:9a:38:d3:93:bc:bf:4d:21:63:14:
                    47:98:db:0a:24:85:75:77:d2:99:03:02:6f:cb:f6:
                    9e:84:dc:e9:c1:ae:70:bd:a7:6d:3c:26:cc:e1:9f:
                    44:7b:6b:df:32:55:f0:af:f7:a0:51:aa:64:35:87:
                    3c:bd:81:e4:1e:c1:66:94:2d
                Exponent: 65537 (0x10001)
        X509v3 extensions:
            X509v3 Basic Constraints: critical
                CA:FALSE
            X509v3 Subject Key Identifier: 
                C7:42:8D:BB:B1:0E:68:95:5E:CC:31:56:64:FE:C5:93:FA:63:8D:8C
            X509v3 Authority Key Identifier: 
                keyid:C7:42:8D:BB:B1:0E:68:95:5E:CC:31:56:64:FE:C5:93:FA:63:8D:8C
                DirName:/O=NodeOPCUA/CN=NodeOPCUA
                serial:10:05

            X509v3 Subject Alternative Name: 
                URI:urn:NB5DSCR503191NB:NodeOPCUA-Server, DNS:localhost, DNS:NB5DSCR503191NB
            Netscape Comment: 
                OpenSSL Generated Certificate
            X509v3 Key Usage: critical
                Digital Signature, Non Repudiation, Key Encipherment, Data Encipherment, Key Agreement, Certificate Sign
            X509v3 Extended Key Usage: critical
                TLS Web Server Authentication, TLS Web Client Authentication
    Signature Algorithm: sha256WithRSAEncryption
         65:0b:30:40:77:ec:3f:03:e8:48:36:96:25:b4:d4:21:9a:db:
         28:6c:39:a6:30:bc:a2:ef:80:05:b2:2c:e1:7b:b1:74:60:da:
         36:d7:c6:d0:a6:22:e2:83:b9:25:28:6b:21:94:91:b2:69:d8:
         04:dc:4e:57:e4:d1:ae:a5:6e:a9:ad:bc:fb:13:b7:92:1c:88:
         c5:45:d8:8d:67:8b:24:61:d7:41:51:a2:d5:1e:bd:85:ea:e8:
         4c:72:ae:4a:0c:55:4c:5b:2c:0b:af:94:c5:2b:0a:a0:6a:c0:
         e5:fb:ee:05:18:9f:93:bb:f2:b9:fa:58:56:ec:52:43:10:58:
         e4:03
-----BEGIN CERTIFICATE-----
MIIC/jCCAmegAwIBAgICEAUwDQYJKoZIhvcNAQELBQAwKDESMBAGA1UEChMJTm9k
ZU9QQ1VBMRIwEAYDVQQDEwlOb2RlT1BDVUEwIhgPMjAxNzA4MjgxMTE0MDVaGA8y
MDE4MDgyODExMTQwNVowKDESMBAGA1UEChMJTm9kZU9QQ1VBMRIwEAYDVQQDEwlO
b2RlT1BDVUEwgZ8wDQYJKoZIhvcNAQEBBQADgY0AMIGJAoGBANd2//ySdrW6XWsI
1bskEfowkbE8TWsnyPY/SMrYUDAOa1xaoWQ0kvwqyOkwHzClTJTApyXyGcoyQnb0
gcRBbwyaONOTvL9NIWMUR5jbCiSFdXfSmQMCb8v2noTc6cGucL2nbTwmzOGfRHtr
3zJV8K/3oFGqZDWHPL2B5B7BZpQtAgMBAAGjggExMIIBLTAMBgNVHRMBAf8EAjAA
MB0GA1UdDgQWBBTHQo27sQ5olV7MMVZk/sWT+mONjDBRBgNVHSMESjBIgBTHQo27
sQ5olV7MMVZk/sWT+mONjKEspCowKDESMBAGA1UEChMJTm9kZU9QQ1VBMRIwEAYD
VQQDEwlOb2RlT1BDVUGCAhAFMEsGA1UdEQREMEKGJHVybjpOQjVEU0NSNTAzMTkx
TkI6Tm9kZU9QQ1VBLVNlcnZlcoIJbG9jYWxob3N0gg9OQjVEU0NSNTAzMTkxTkIw
LAYJYIZIAYb4QgENBB8WHU9wZW5TU0wgR2VuZXJhdGVkIENlcnRpZmljYXRlMA4G
A1UdDwEB/wQEAwIC/DAgBgNVHSUBAf8EFjAUBggrBgEFBQcDAQYIKwYBBQUHAwIw
DQYJKoZIhvcNAQELBQADgYEAZQswQHfsPwPoSDaWJbTUIZrbKGw5pjC8ou+ABbIs
4XuxdGDaNtfG0KYi4oO5JShrIZSRsmnYBNxOV+TRrqVuqa28+xO3khyIxUXYjWeL
JGHXQVGi1R69heroTHKuSgxVTFssC6+UxSsKoGrA5fvuBRifk7vyufpYVuxSQxBY
5AM=
-----END CERTIFICATE-----
