Certificate:
    Data:
        Version: 3 (0x2)
        Serial Number: 4103 (0x1007)
    Signature Algorithm: sha256WithRSAEncryption
        Issuer: O=NodeOPCUA, CN=NodeOPCUA
        Validity
            Not Before: Sep  3 10:43:33 2018 GMT
            Not After : Sep  3 10:43:33 2019 GMT
        Subject: O=NodeOPCUA, CN=NodeOPCUA
        Subject Public Key Info:
            Public Key Algorithm: rsaEncryption
                Public-Key: (2048 bit)
                Modulus:
                    00:cb:3c:26:cb:ef:e8:e9:c2:62:20:0d:28:95:4d:
                    dd:3d:33:4c:78:27:6a:99:25:48:cd:6f:fb:24:69:
                    c2:0c:b5:ca:10:0a:26:43:db:43:a3:d2:52:b9:18:
                    49:94:68:c6:3a:ee:f4:4b:cd:6a:51:0f:46:40:55:
                    17:49:1e:03:b5:59:95:90:76:8e:1a:ca:8f:c6:68:
                    67:23:e6:c8:54:7b:85:94:b6:03:d1:c4:5c:9a:6f:
                    ef:9a:c5:64:e9:ce:98:0b:12:e4:cd:5c:43:10:87:
                    0c:18:bf:b3:5e:7a:7c:fb:0d:0f:2c:6d:47:c1:82:
                    00:b5:3f:40:a3:c4:2c:62:27:23:05:d2:e7:c7:fc:
                    b9:8b:89:f9:a9:60:c1:e0:ca:7e:ef:df:4f:31:3a:
                    cc:c8:05:f7:f3:a5:8a:f8:56:da:bb:ea:2c:5f:1f:
                    62:15:17:32:f5:00:77:bc:15:a2:25:95:ec:47:1d:
                    34:80:47:ee:6c:bd:61:fa:cd:ec:47:69:e3:65:fb:
                    4a:8b:98:b8:26:e8:6c:fe:4a:d7:51:50:53:b6:e7:
                    01:2f:17:2c:7c:8d:6b:bb:4e:ee:77:6b:fe:0b:95:
                    c1:07:cd:2d:7f:58:19:b3:f6:7e:f6:9e:51:3d:96:
                    f2:5c:89:c8:14:88:dd:b0:e1:50:33:d1:97:80:d1:
                    b7:89
                Exponent: 65537 (0x10001)
        X509v3 extensions:
            X509v3 Basic Constraints: critical
                CA:FALSE
            X509v3 Subject Key Identifier: 
                C3:96:5A:BE:6C:A0:11:80:95:0D:42:D7:76:6B:68:4C:78:57:CA:F3
            X509v3 Authority Key Identifier: 
                keyid:C3:96:5A:BE:6C:A0:11:80:95:0D:42:D7:76:6B:68:4C:78:57:CA:F3
                DirName:/O=NodeOPCUA/CN=NodeOPCUA
                serial:10:07

            X509v3 Subject Alternative Name: 
                URI:urn:NB5DSCR503191NB:NodeOPCUA-Server, DNS:localhost, DNS:NB5DSCR503191NB
            Netscape Comment: 
                OpenSSL Generated Certificate
            X509v3 Key Usage: critical
                Digital Signature, Non Repudiation, Key Encipherment, Data Encipherment, Key Agreement, Certificate Sign
            X509v3 Extended Key Usage: critical
                TLS Web Server Authentication, TLS Web Client Authentication
    Signature Algorithm: sha256WithRSAEncryption
         4c:9f:f8:36:34:f2:9a:cb:18:1e:e6:32:61:e1:cb:a3:a0:d2:
         d0:86:33:70:8c:a4:c1:48:de:cc:f7:42:06:38:6f:7c:37:c8:
         96:a8:31:04:26:cd:49:d6:b3:d0:1b:43:db:44:9d:02:16:5a:
         4b:5b:74:b5:65:82:79:ef:0b:51:ca:95:b8:ce:bc:3b:3b:27:
         4c:d1:8c:f6:52:2e:a9:f6:9d:ce:72:32:e1:ee:7a:35:fe:11:
         bc:ab:d8:09:51:40:6e:fd:7d:20:1b:2c:e4:e4:31:25:95:a3:
         2e:1c:22:00:2c:b7:3f:7a:5b:c8:70:5c:59:57:d1:47:d6:74:
         d4:0c:f9:29:03:bc:ff:f6:23:e3:7e:23:f1:d3:4d:b7:f9:07:
         6d:bf:a7:95:ee:8c:07:f9:fe:30:fb:6d:df:29:76:63:34:78:
         a7:ea:d5:53:5a:3d:79:c2:e6:f4:93:9b:6a:aa:e2:65:e0:e1:
         71:e5:1c:a6:3b:58:1b:92:22:3d:b1:25:a9:42:66:1d:6c:16:
         d7:64:bd:7b:f7:43:4f:0b:6a:30:fe:da:e3:f7:af:cc:7a:96:
         1e:16:4f:88:f6:64:57:21:0d:cb:60:a4:0e:f9:45:1e:8d:45:
         e7:83:39:b9:aa:44:28:9b:fa:65:78:78:8e:36:f5:53:df:c7:
         d5:45:89:6d
-----BEGIN CERTIFICATE-----
MIIEAzCCAuugAwIBAgICEAcwDQYJKoZIhvcNAQELBQAwKDESMBAGA1UEChMJTm9k
ZU9QQ1VBMRIwEAYDVQQDEwlOb2RlT1BDVUEwIhgPMjAxODA5MDMxMDQzMzNaGA8y
MDE5MDkwMzEwNDMzM1owKDESMBAGA1UEChMJTm9kZU9QQ1VBMRIwEAYDVQQDEwlO
b2RlT1BDVUEwggEiMA0GCSqGSIb3DQEBAQUAA4IBDwAwggEKAoIBAQDLPCbL7+jp
wmIgDSiVTd09M0x4J2qZJUjNb/skacIMtcoQCiZD20Oj0lK5GEmUaMY67vRLzWpR
D0ZAVRdJHgO1WZWQdo4ayo/GaGcj5shUe4WUtgPRxFyab++axWTpzpgLEuTNXEMQ
hwwYv7Neenz7DQ8sbUfBggC1P0CjxCxiJyMF0ufH/LmLifmpYMHgyn7v308xOszI
BffzpYr4Vtq76ixfH2IVFzL1AHe8FaIllexHHTSAR+5svWH6zexHaeNl+0qLmLgm
6Gz+StdRUFO25wEvFyx8jWu7Tu53a/4LlcEHzS1/WBmz9n72nlE9lvJcicgUiN2w
4VAz0ZeA0beJAgMBAAGjggExMIIBLTAMBgNVHRMBAf8EAjAAMB0GA1UdDgQWBBTD
llq+bKARgJUNQtd2a2hMeFfK8zBRBgNVHSMESjBIgBTDllq+bKARgJUNQtd2a2hM
eFfK86EspCowKDESMBAGA1UEChMJTm9kZU9QQ1VBMRIwEAYDVQQDEwlOb2RlT1BD
VUGCAhAHMEsGA1UdEQREMEKGJHVybjpOQjVEU0NSNTAzMTkxTkI6Tm9kZU9QQ1VB
LVNlcnZlcoIJbG9jYWxob3N0gg9OQjVEU0NSNTAzMTkxTkIwLAYJYIZIAYb4QgEN
BB8WHU9wZW5TU0wgR2VuZXJhdGVkIENlcnRpZmljYXRlMA4GA1UdDwEB/wQEAwIC
/DAgBgNVHSUBAf8EFjAUBggrBgEFBQcDAQYIKwYBBQUHAwIwDQYJKoZIhvcNAQEL
BQADggEBAEyf+DY08prLGB7mMmHhy6Og0tCGM3CMpMFI3sz3QgY4b3w3yJaoMQQm
zUnWs9AbQ9tEnQIWWktbdLVlgnnvC1HKlbjOvDs7J0zRjPZSLqn2nc5yMuHuejX+
Ebyr2AlRQG79fSAbLOTkMSWVoy4cIgAstz96W8hwXFlX0UfWdNQM+SkDvP/2I+N+
I/HTTbf5B22/p5XujAf5/jD7bd8pdmM0eKfq1VNaPXnC5vSTm2qq4mXg4XHlHKY7
WBuSIj2xJalCZh1sFtdkvXv3Q08LajD+2uP3r8x6lh4WT4j2ZFchDctgpA75RR6N
ReeDObmqRCib+mV4eI429VPfx9VFiW0=
-----END CERTIFICATE-----
