Certificate:
    Data:
        Version: 3 (0x2)
        Serial Number: 4102 (0x1006)
    Signature Algorithm: sha256WithRSAEncryption
        Issuer: C=FR, ST=IDF, L=Paris, O=Local NODE-OPCUA Certificate Authority, CN=NodeOPCUA-CA
        Validity
            Not Before: Sep  3 10:43:33 2018 GMT
            Not After : Sep  3 10:43:33 2019 GMT
        Subject: C=FR, O=NodeOPCUA, CN=NodeOPCUA
        Subject Public Key Info:
            Public Key Algorithm: rsaEncryption
                Public-Key: (2048 bit)
                Modulus:
                    00:cb:3c:26:cb:ef:e8:e9:c2:62:20:0d:28:95:4d:
                    dd:3d:33:4c:78:27:6a:99:25:48:cd:6f:fb:24:69:
                    c2:0c:b5:ca:10:0a:26:43:db:43:a3:d2:52:b9:18:
                    49:94:68:c6:3a:ee:f4:4b:cd:6a:51:0f:46:40:55:
                    17:49:1e:03:b5:59:95:90:76:8e:1a:ca:8f:c6:68:
                    67:23:e6:c8:54:7b:85:94:b6:03:d1:c4:5c:9a:6f:
                    ef:9a:c5:64:e9:ce:98:0b:12:e4:cd:5c:43:10:87:
                    0c:18:bf:b3:5e:7a:7c:fb:0d:0f:2c:6d:47:c1:82:
                    00:b5:3f:40:a3:c4:2c:62:27:23:05:d2:e7:c7:fc:
                    b9:8b:89:f9:a9:60:c1:e0:ca:7e:ef:df:4f:31:3a:
                    cc:c8:05:f7:f3:a5:8a:f8:56:da:bb:ea:2c:5f:1f:
                    62:15:17:32:f5:00:77:bc:15:a2:25:95:ec:47:1d:
                    34:80:47:ee:6c:bd:61:fa:cd:ec:47:69:e3:65:fb:
                    4a:8b:98:b8:26:e8:6c:fe:4a:d7:51:50:53:b6:e7:
                    01:2f:17:2c:7c:8d:6b:bb:4e:ee:77:6b:fe:0b:95:
                    c1:07:cd:2d:7f:58:19:b3:f6:7e:f6:9e:51:3d:96:
                    f2:5c:89:c8:14:88:dd:b0:e1:50:33:d1:97:80:d1:
                    b7:89
                Exponent: 65537 (0x10001)
        X509v3 extensions:
            X509v3 Basic Constraints: critical
                CA:FALSE
            X509v3 Subject Key Identifier: 
                C3:96:5A:BE:6C:A0:11:80:95:0D:42:D7:76:6B:68:4C:78:57:CA:F3
            X509v3 Authority Key Identifier: 
                keyid:86:4E:30:D2:2D:4E:5C:90:F0:21:CA:04:E0:3D:85:44:1D:07:2A:15
                DirName:/C=FR/ST=IDF/L=Paris/O=Local NODE-OPCUA Certificate Authority/CN=NodeOPCUA-CA
                serial:D3:4D:17:85:65:28:E7:25

            X509v3 Subject Alternative Name: 
                URI:urn:NB5DSCR503191NB:NodeOPCUA-Server, DNS:localhost, DNS:NB5DSCR503191NB
            Netscape Comment: 
                OpenSSL Generated Certificate
            X509v3 Key Usage: critical
                Digital Signature, Non Repudiation, Key Encipherment, Data Encipherment, Key Agreement, Certificate Sign
            X509v3 Extended Key Usage: critical
                TLS Web Server Authentication, TLS Web Client Authentication
    Signature Algorithm: sha256WithRSAEncryption
         4f:a0:6d:f1:5d:1b:aa:8f:9d:00:04:b8:4c:fd:3d:4c:28:a3:
         7f:4e:f1:ca:45:74:d8:fb:f2:27:c9:6c:a4:b9:f3:0b:48:07:
         32:54:a6:5e:1a:00:93:53:39:40:22:8d:93:09:b3:98:44:51:
         10:be:c4:a4:fc:2e:43:3d:ad:ef:e2:7d:dc:32:96:f2:bf:ed:
         0a:83:fe:55:c4:56:06:52:32:b6:8a:c2:63:e7:16:ac:dd:56:
         6e:28:43:97:b5:be:e4:9d:31:98:8b:80:31:eb:c0:3c:cb:a2:
         f7:15:21:b1:e3:e5:14:c2:03:e5:9c:11:ad:73:3f:f0:c0:7b:
         74:0c:01:5e:d5:be:cf:b3:be:35:ad:cf:bf:6c:46:ed:7e:5a:
         9b:82:71:4b:63:fd:61:39:da:0f:8d:69:b2:8a:20:f5:c2:16:
         38:a2:ee:52:82:f6:13:ef:24:23:30:5e:2b:7b:68:ea:2e:23:
         88:0a:26:dd:b3:c5:44:a5:20:8c:c3:c5:16:b5:4c:5a:8f:71:
         08:66:39:61:01:e6:b2:4d:ae:3f:8a:0c:28:4c:8e:d0:d3:0c:
         c3:72:b3:34:6e:32:f9:25:d5:53:3c:ec:65:13:e4:da:55:a9:
         e0:ed:22:9c:52:f9:2c:a8:b3:3e:31:49:8d:da:a5:7c:30:2c:
         b2:3e:93:e9
-----BEGIN CERTIFICATE-----
MIIEsDCCA5igAwIBAgICEAYwDQYJKoZIhvcNAQELBQAwczELMAkGA1UEBhMCRlIx
DDAKBgNVBAgTA0lERjEOMAwGA1UEBxMFUGFyaXMxLzAtBgNVBAoTJkxvY2FsIE5P
REUtT1BDVUEgQ2VydGlmaWNhdGUgQXV0aG9yaXR5MRUwEwYDVQQDEwxOb2RlT1BD
VUEtQ0EwIhgPMjAxODA5MDMxMDQzMzNaGA8yMDE5MDkwMzEwNDMzM1owNTELMAkG
A1UEBhMCRlIxEjAQBgNVBAoMCU5vZGVPUENVQTESMBAGA1UEAwwJTm9kZU9QQ1VB
MIIBIjANBgkqhkiG9w0BAQEFAAOCAQ8AMIIBCgKCAQEAyzwmy+/o6cJiIA0olU3d
PTNMeCdqmSVIzW/7JGnCDLXKEAomQ9tDo9JSuRhJlGjGOu70S81qUQ9GQFUXSR4D
tVmVkHaOGsqPxmhnI+bIVHuFlLYD0cRcmm/vmsVk6c6YCxLkzVxDEIcMGL+zXnp8
+w0PLG1HwYIAtT9Ao8QsYicjBdLnx/y5i4n5qWDB4Mp+799PMTrMyAX386WK+Fba
u+osXx9iFRcy9QB3vBWiJZXsRx00gEfubL1h+s3sR2njZftKi5i4Juhs/krXUVBT
tucBLxcsfI1ru07ud2v+C5XBB80tf1gZs/Z+9p5RPZbyXInIFIjdsOFQM9GXgNG3
iQIDAQABo4IBhjCCAYIwDAYDVR0TAQH/BAIwADAdBgNVHQ4EFgQUw5ZavmygEYCV
DULXdmtoTHhXyvMwgaUGA1UdIwSBnTCBmoAUhk4w0i1OXJDwIcoE4D2FRB0HKhWh
d6R1MHMxCzAJBgNVBAYTAkZSMQwwCgYDVQQIEwNJREYxDjAMBgNVBAcTBVBhcmlz
MS8wLQYDVQQKEyZMb2NhbCBOT0RFLU9QQ1VBIENlcnRpZmljYXRlIEF1dGhvcml0
eTEVMBMGA1UEAxMMTm9kZU9QQ1VBLUNBggkA000XhWUo5yUwSwYDVR0RBEQwQoYk
dXJuOk5CNURTQ1I1MDMxOTFOQjpOb2RlT1BDVUEtU2VydmVygglsb2NhbGhvc3SC
D05CNURTQ1I1MDMxOTFOQjAsBglghkgBhvhCAQ0EHxYdT3BlblNTTCBHZW5lcmF0
ZWQgQ2VydGlmaWNhdGUwDgYDVR0PAQH/BAQDAgL8MCAGA1UdJQEB/wQWMBQGCCsG
AQUFBwMBBggrBgEFBQcDAjANBgkqhkiG9w0BAQsFAAOCAQEAT6Bt8V0bqo+dAAS4
TP09TCijf07xykV02PvyJ8lspLnzC0gHMlSmXhoAk1M5QCKNkwmzmERREL7EpPwu
Qz2t7+J93DKW8r/tCoP+VcRWBlIytorCY+cWrN1WbihDl7W+5J0xmIuAMevAPMui
9xUhsePlFMID5ZwRrXM/8MB7dAwBXtW+z7O+Na3Pv2xG7X5am4JxS2P9YTnaD41p
soog9cIWOKLuUoL2E+8kIzBeK3to6i4jiAom3bPFRKUgjMPFFrVMWo9xCGY5YQHm
sk2uP4oMKEyO0NMMw3KzNG4y+SXVUzzsZRPk2lWp4O0inFL5LKizPjFJjdqlfDAs
sj6T6Q==
-----END CERTIFICATE-----
-----BEGIN CERTIFICATE-----
MIIE3TCCA8WgAwIBAgIJANNNF4VlKOclMA0GCSqGSIb3DQEBCwUAMHMxCzAJBgNV
BAYTAkZSMQwwCgYDVQQIEwNJREYxDjAMBgNVBAcTBVBhcmlzMS8wLQYDVQQKEyZM
b2NhbCBOT0RFLU9QQ1VBIENlcnRpZmljYXRlIEF1dGhvcml0eTEVMBMGA1UEAxMM
Tm9kZU9QQ1VBLUNBMB4XDTE4MDkwNDEwNDMzNFoXDTI4MDkwMTEwNDMzNFowczEL
MAkGA1UEBhMCRlIxDDAKBgNVBAgTA0lERjEOMAwGA1UEBxMFUGFyaXMxLzAtBgNV
BAoTJkxvY2FsIE5PREUtT1BDVUEgQ2VydGlmaWNhdGUgQXV0aG9yaXR5MRUwEwYD
VQQDEwxOb2RlT1BDVUEtQ0EwggEiMA0GCSqGSIb3DQEBAQUAA4IBDwAwggEKAoIB
AQCvYUzijDNz77wTkCowT3+E4StzWetxBIGZbsaV2sMn8z+qKWqNS6jkFF28Us0J
dXQYChjkv+WKrjNXLNOJ8vByYwdKIStJaNXSPM7oepSJhO8WGHESi6qvEQhAC7fz
Rf/FsjJ6ebsceX1vtnCPrluB5HdgG6XSF/msJ9kBJi93ojfeiWD9StsIhhnl1QwX
HwLL6kBxE58AiFHnsFb5sDKzE3B56USaMwPATm4n0zMyGHZ443XbtZ83I6NU161q
WsFEIr4jaM9A41ZwZAmbGKWkfE/v+zujiqSNAfhUhUIDwSRuBNX3YE96M+C3HoUv
TjWVGIc8+B5nTtQqQgx8tgldAgMBAAGjggFyMIIBbjAdBgNVHQ4EFgQUhk4w0i1O
XJDwIcoE4D2FRB0HKhUwgaUGA1UdIwSBnTCBmoAUhk4w0i1OXJDwIcoE4D2FRB0H
KhWhd6R1MHMxCzAJBgNVBAYTAkZSMQwwCgYDVQQIEwNJREYxDjAMBgNVBAcTBVBh
cmlzMS8wLQYDVQQKEyZMb2NhbCBOT0RFLU9QQ1VBIENlcnRpZmljYXRlIEF1dGhv
cml0eTEVMBMGA1UEAxMMTm9kZU9QQ1VBLUNBggkA000XhWUo5yUwDAYDVR0TBAUw
AwEB/zAOBgNVHQ8BAf8EBAMCAQYwVwYJYIZIAYb4QgENBEoWSENBIENlcnRpZmlj
YXRlIGdlbmVyYXRlZCBieSBOb2RlLU9QQ1VBIENlcnRpZmljYXRlIHV0aWxpdHkg
dXNpbmcgb3BlbnNzbDAuBgNVHR8EJzAlMCOgIaAfhh1odHRwOi8vbG9jYWxob3N0
Ojg5MDAvY3JsLnBlbTANBgkqhkiG9w0BAQsFAAOCAQEAR3YnhJgfXuL2u7BkL0RS
+3ZIqhrvVGEJ5LiY31KlUoBMd6qENBuI18xQfdU/8JcoKNkn5Z4Ho7KYm4IfctEW
vURP2Ogiv/spKaIdq05EQX7EYXUhzos1UosuF4TZ7dZo+08pbKb7V4FXfh+gEXOO
11AlZDlrSgYdunsawi1p4REtfNxPCLuUkhnSbpUxlVJJwUfwhe8oa4gq4hIxDjSb
ULCC5t22mzyd/Lw57PDNqetcUDxns+SyakKFHdCcB5yBdbibc/g7R1xtzMNp7Wy+
uMIdWVLqNH7HehVmEBGNxxiH+Gr0B5eTs5NugEWlr/X0BCzsIQaSgc4Y7uKejXu/
jA==
-----END CERTIFICATE-----
