Certificate Request:
    Data:
        Version: 0 (0x0)
        Subject: C=FR, O=NodeOPCUA, CN=NodeOPCUA
        Subject Public Key Info:
            Public Key Algorithm: rsaEncryption
                Public-Key: (2048 bit)
                Modulus:
                    00:cb:3c:26:cb:ef:e8:e9:c2:62:20:0d:28:95:4d:
                    dd:3d:33:4c:78:27:6a:99:25:48:cd:6f:fb:24:69:
                    c2:0c:b5:ca:10:0a:26:43:db:43:a3:d2:52:b9:18:
                    49:94:68:c6:3a:ee:f4:4b:cd:6a:51:0f:46:40:55:
                    17:49:1e:03:b5:59:95:90:76:8e:1a:ca:8f:c6:68:
                    67:23:e6:c8:54:7b:85:94:b6:03:d1:c4:5c:9a:6f:
                    ef:9a:c5:64:e9:ce:98:0b:12:e4:cd:5c:43:10:87:
                    0c:18:bf:b3:5e:7a:7c:fb:0d:0f:2c:6d:47:c1:82:
                    00:b5:3f:40:a3:c4:2c:62:27:23:05:d2:e7:c7:fc:
                    b9:8b:89:f9:a9:60:c1:e0:ca:7e:ef:df:4f:31:3a:
                    cc:c8:05:f7:f3:a5:8a:f8:56:da:bb:ea:2c:5f:1f:
                    62:15:17:32:f5:00:77:bc:15:a2:25:95:ec:47:1d:
                    34:80:47:ee:6c:bd:61:fa:cd:ec:47:69:e3:65:fb:
                    4a:8b:98:b8:26:e8:6c:fe:4a:d7:51:50:53:b6:e7:
                    01:2f:17:2c:7c:8d:6b:bb:4e:ee:77:6b:fe:0b:95:
                    c1:07:cd:2d:7f:58:19:b3:f6:7e:f6:9e:51:3d:96:
                    f2:5c:89:c8:14:88:dd:b0:e1:50:33:d1:97:80:d1:
                    b7:89
                Exponent: 65537 (0x10001)
        Attributes:
        Requested Extensions:
            X509v3 Basic Constraints: 
                CA:FALSE
            X509v3 Key Usage: critical
                Certificate Sign, CRL Sign
            X509v3 Subject Alternative Name: 
                URI:undefined
    Signature Algorithm: sha256WithRSAEncryption
         46:03:ef:06:e0:fd:ed:04:01:ae:77:92:a7:3d:be:81:9c:b5:
         2b:5c:ee:2c:3c:b4:ed:ee:ec:9f:76:d8:68:c3:f0:2a:e0:2a:
         19:2c:23:80:fc:83:1b:7c:8d:dd:59:ab:02:fc:e6:31:6f:b1:
         64:64:07:07:53:44:e2:30:a3:75:e0:5e:e4:bd:b1:ee:e0:0b:
         42:f1:af:fc:2e:dc:eb:42:c0:00:47:f8:d6:ab:c4:d5:5d:93:
         08:03:c3:f7:4e:a5:3b:cf:28:92:57:4c:ca:87:ce:b7:67:a3:
         cb:b1:2a:c2:66:32:d9:59:fc:7a:05:81:a5:7a:5a:8c:93:47:
         7d:4e:91:bf:0e:d1:ba:78:1c:a3:8b:e2:35:c3:bd:13:8b:da:
         7f:10:e3:c7:1b:c0:38:b5:71:e3:b5:70:76:dd:9e:a2:3c:f7:
         86:82:13:1f:af:c0:a9:c3:b6:84:e0:f2:98:44:c8:7c:eb:eb:
         2c:9a:59:bd:81:6a:be:fc:68:b3:e7:4a:2c:fe:10:ba:ba:83:
         75:35:0c:99:ff:26:85:30:06:fc:15:49:bd:ee:80:72:ff:46:
         3d:be:90:b2:6d:3d:35:ac:f1:7d:44:fa:c3:f0:26:7b:ad:a7:
         e0:6c:59:05:c8:e2:9a:53:10:7b:c4:f7:d9:fa:1d:0b:9f:26:
         4b:fa:b4:02
-----BEGIN CERTIFICATE REQUEST-----
MIICvDCCAaQCAQAwNTELMAkGA1UEBhMCRlIxEjAQBgNVBAoMCU5vZGVPUENVQTES
MBAGA1UEAwwJTm9kZU9QQ1VBMIIBIjANBgkqhkiG9w0BAQEFAAOCAQ8AMIIBCgKC
AQEAyzwmy+/o6cJiIA0olU3dPTNMeCdqmSVIzW/7JGnCDLXKEAomQ9tDo9JSuRhJ
lGjGOu70S81qUQ9GQFUXSR4DtVmVkHaOGsqPxmhnI+bIVHuFlLYD0cRcmm/vmsVk
6c6YCxLkzVxDEIcMGL+zXnp8+w0PLG1HwYIAtT9Ao8QsYicjBdLnx/y5i4n5qWDB
4Mp+799PMTrMyAX386WK+Fbau+osXx9iFRcy9QB3vBWiJZXsRx00gEfubL1h+s3s
R2njZftKi5i4Juhs/krXUVBTtucBLxcsfI1ru07ud2v+C5XBB80tf1gZs/Z+9p5R
PZbyXInIFIjdsOFQM9GXgNG3iQIDAQABoEIwQAYJKoZIhvcNAQkOMTMwMTAJBgNV
HRMEAjAAMA4GA1UdDwEB/wQEAwIBBjAUBgNVHREEDTALhgl1bmRlZmluZWQwDQYJ
KoZIhvcNAQELBQADggEBAEYD7wbg/e0EAa53kqc9voGctStc7iw8tO3u7J922GjD
8CrgKhksI4D8gxt8jd1ZqwL85jFvsWRkBwdTROIwo3XgXuS9se7gC0Lxr/wu3OtC
wABH+NarxNVdkwgDw/dOpTvPKJJXTMqHzrdno8uxKsJmMtlZ/HoFgaV6WoyTR31O
kb8O0bp4HKOL4jXDvROL2n8Q48cbwDi1ceO1cHbdnqI894aCEx+vwKnDtoTg8phE
yHzr6yyaWb2Bar78aLPnSiz+ELq6g3U1DJn/JoUwBvwVSb3ugHL/Rj2+kLJtPTWs
8X1E+sPwJnutp+BsWQXI4ppTEHvE99n6HQufJkv6tAI=
-----END CERTIFICATE REQUEST-----
