Certificate:
    Data:
        Version: 3 (0x2)
        Serial Number: 4100 (0x1004)
        Signature Algorithm: sha256WithRSAEncryption
        Issuer: C=FR, ST=IDF, L=Paris, O=Local NODE-OPCUA Certificate Authority, CN=NodeOPCUA-CA
        Validity
            Not Before: Dec 14 09:01:51 2016 GMT
            Not After : Dec 11 09:01:51 2031 GMT
        Subject: C=FR, O=NodeOPCUA, CN=NodeOPCUA
        Subject Public Key Info:
            Public Key Algorithm: rsaEncryption
            RSA Public Key: (2048 bit)
                Modulus (2048 bit):
                    00:c8:3a:58:33:7e:72:31:99:9c:4d:21:d8:f5:5f:
                    b4:59:a9:50:d2:3c:ab:01:18:1e:74:6d:73:7e:2f:
                    b1:41:e6:88:c7:e5:4d:68:f3:af:c8:14:42:5d:9b:
                    86:58:fe:31:a4:ca:14:ae:7b:98:f9:01:9a:55:96:
                    c6:44:34:c5:15:88:8b:16:5f:e1:42:9a:68:85:91:
                    34:3d:96:3f:07:08:0a:b1:62:7f:c0:3c:ea:c9:bc:
                    6c:1b:a8:3e:df:64:fc:f9:8d:f8:68:0c:80:7f:de:
                    05:25:8d:6b:53:9b:46:60:f1:61:98:af:f5:c8:c9:
                    85:0b:83:e2:17:e5:50:38:3f:c7:9f:b5:1c:2d:84:
                    13:5b:9e:9c:79:01:7b:a1:ff:33:e2:1f:b4:49:d5:
                    d7:b4:4c:e6:8a:9a:8d:1e:e7:7c:fa:04:79:ea:c2:
                    95:d7:4d:59:db:d4:38:9e:6a:20:79:37:f7:7d:a2:
                    30:d0:a6:df:7d:cb:28:32:f3:2f:6b:e1:2b:7e:be:
                    c5:09:31:06:52:36:58:4f:4f:bf:56:c1:4e:38:07:
                    db:cd:ed:87:c3:09:08:17:ac:65:13:d6:55:9e:e5:
                    b5:96:83:b8:f3:0b:a9:69:64:44:2e:04:c7:a3:54:
                    52:48:74:4d:47:a7:6c:4a:ba:c4:04:87:c6:56:1e:
                    3b:ab
                Exponent: 65537 (0x10001)
        X509v3 extensions:
            X509v3 Basic Constraints: critical
                CA:FALSE
            X509v3 Subject Key Identifier: 
                D9:51:4D:B6:2D:8F:89:76:16:DE:D4:26:A9:6E:6F:F6:59:26:92:96
            X509v3 Authority Key Identifier: 
                keyid:3F:D8:37:24:BA:BF:0C:87:43:48:13:D1:F3:8B:00:70:CD:6D:BE:F1
                DirName:/C=FR/ST=IDF/L=Paris/O=Local NODE-OPCUA Certificate Authority/CN=NodeOPCUA-CA
                serial:9F:41:84:B6:C3:61:98:88

            X509v3 Subject Alternative Name: 
                URI:urn:imac.local:Node-OPCUA-Server, DNS:imac.local
            Netscape Comment: 
                OpenSSL Generated Certificate
            X509v3 Key Usage: critical
                Digital Signature, Non Repudiation, Key Encipherment, Data Encipherment, Key Agreement, Certificate Sign
            X509v3 Extended Key Usage: critical
                TLS Web Server Authentication, TLS Web Client Authentication
    Signature Algorithm: sha256WithRSAEncryption
        97:8b:57:d9:1d:4b:52:f6:21:ee:f0:29:90:e4:3c:75:29:56:
        3e:42:a7:27:9b:10:11:0e:4c:80:5e:74:78:a1:74:28:27:6a:
        e6:ef:57:01:3f:df:1d:e1:3e:5b:7f:9d:f8:98:6d:8f:37:d9:
        80:9a:75:ed:68:e4:8f:5f:8e:8e:f6:ce:8e:8f:c5:49:2c:c8:
        df:bb:59:84:2b:df:c0:cb:61:72:a7:bc:ac:30:27:d6:4b:97:
        05:48:05:88:37:b0:c8:f4:75:88:2b:37:a0:27:af:19:55:d4:
        b6:3b:3c:c8:46:53:2c:d0:29:5d:30:6f:a6:2f:32:f3:2a:f3:
        5c:8b:f6:b2:3f:54:f8:11:73:a1:0d:43:3d:87:09:94:28:ab:
        7a:77:2a:bd:15:c6:d6:b9:c4:39:ad:6c:ef:61:7f:7b:e6:de:
        f1:d5:1a:fc:12:e5:1c:d6:6e:a4:62:f4:ee:d1:56:0b:d6:1f:
        b1:81:53:df:98:5c:a1:c8:5b:ad:f2:27:ba:02:c2:99:36:95:
        7a:14:f4:0d:cc:9a:76:4e:4b:50:75:90:9a:61:be:9b:81:16:
        1a:59:98:5f:86:58:5e:88:c9:a9:0e:06:55:f5:20:97:0b:bf:
        8b:95:52:fe:7e:9c:fe:88:99:a2:83:5e:85:8c:88:da:61:ff:
        8d:df:b7:49
-----BEGIN CERTIFICATE-----
MIIEmDCCA4CgAwIBAgICEAQwDQYJKoZIhvcNAQELBQAwczELMAkGA1UEBhMCRlIx
DDAKBgNVBAgTA0lERjEOMAwGA1UEBxMFUGFyaXMxLzAtBgNVBAoTJkxvY2FsIE5P
REUtT1BDVUEgQ2VydGlmaWNhdGUgQXV0aG9yaXR5MRUwEwYDVQQDEwxOb2RlT1BD
VUEtQ0EwHhcNMTYxMjE0MDkwMTUxWhcNMzExMjExMDkwMTUxWjA1MQswCQYDVQQG
EwJGUjESMBAGA1UECgwJTm9kZU9QQ1VBMRIwEAYDVQQDDAlOb2RlT1BDVUEwggEi
MA0GCSqGSIb3DQEBAQUAA4IBDwAwggEKAoIBAQDIOlgzfnIxmZxNIdj1X7RZqVDS
PKsBGB50bXN+L7FB5ojH5U1o86/IFEJdm4ZY/jGkyhSue5j5AZpVlsZENMUViIsW
X+FCmmiFkTQ9lj8HCAqxYn/APOrJvGwbqD7fZPz5jfhoDIB/3gUljWtTm0Zg8WGY
r/XIyYULg+IX5VA4P8eftRwthBNbnpx5AXuh/zPiH7RJ1de0TOaKmo0e53z6BHnq
wpXXTVnb1DieaiB5N/d9ojDQpt99yygy8y9r4St+vsUJMQZSNlhPT79WwU44B9vN
7YfDCQgXrGUT1lWe5bWWg7jzC6lpZEQuBMejVFJIdE1Hp2xKusQEh8ZWHjurAgMB
AAGjggFyMIIBbjAMBgNVHRMBAf8EAjAAMB0GA1UdDgQWBBTZUU22LY+Jdhbe1Cap
bm/2WSaSljCBpQYDVR0jBIGdMIGagBQ/2Dckur8Mh0NIE9HziwBwzW2+8aF3pHUw
czELMAkGA1UEBhMCRlIxDDAKBgNVBAgTA0lERjEOMAwGA1UEBxMFUGFyaXMxLzAt
BgNVBAoTJkxvY2FsIE5PREUtT1BDVUEgQ2VydGlmaWNhdGUgQXV0aG9yaXR5MRUw
EwYDVQQDEwxOb2RlT1BDVUEtQ0GCCQCfQYS2w2GYiDA3BgNVHREEMDAuhiB1cm46
aW1hYy5sb2NhbDpOb2RlLU9QQ1VBLVNlcnZlcoIKaW1hYy5sb2NhbDAsBglghkgB
hvhCAQ0EHxYdT3BlblNTTCBHZW5lcmF0ZWQgQ2VydGlmaWNhdGUwDgYDVR0PAQH/
BAQDAgL8MCAGA1UdJQEB/wQWMBQGCCsGAQUFBwMBBggrBgEFBQcDAjANBgkqhkiG
9w0BAQsFAAOCAQEAl4tX2R1LUvYh7vApkOQ8dSlWPkKnJ5sQEQ5MgF50eKF0KCdq
5u9XAT/fHeE+W3+d+JhtjzfZgJp17Wjkj1+OjvbOjo/FSSzI37tZhCvfwMthcqe8
rDAn1kuXBUgFiDewyPR1iCs3oCevGVXUtjs8yEZTLNApXTBvpi8y8yrzXIv2sj9U
+BFzoQ1DPYcJlCirencqvRXG1rnEOa1s72F/e+be8dUa/BLlHNZupGL07tFWC9Yf
sYFT35hcochbrfInugLCmTaVehT0Dcyadk5LUHWQmmG+m4EWGlmYX4ZYXojJqQ4G
VfUglwu/i5VS/n6c/oiZooNehYyI2mH/jd+3SQ==
-----END CERTIFICATE-----
-----BEGIN CERTIFICATE-----
MIIE3TCCA8WgAwIBAgIJAJ9BhLbDYZiIMA0GCSqGSIb3DQEBCwUAMHMxCzAJBgNV
BAYTAkZSMQwwCgYDVQQIEwNJREYxDjAMBgNVBAcTBVBhcmlzMS8wLQYDVQQKEyZM
b2NhbCBOT0RFLU9QQ1VBIENlcnRpZmljYXRlIEF1dGhvcml0eTEVMBMGA1UEAxMM
Tm9kZU9QQ1VBLUNBMB4XDTE2MTIxMzIzMzgzMloXDTI2MTIxMTIzMzgzMlowczEL
MAkGA1UEBhMCRlIxDDAKBgNVBAgTA0lERjEOMAwGA1UEBxMFUGFyaXMxLzAtBgNV
BAoTJkxvY2FsIE5PREUtT1BDVUEgQ2VydGlmaWNhdGUgQXV0aG9yaXR5MRUwEwYD
VQQDEwxOb2RlT1BDVUEtQ0EwggEiMA0GCSqGSIb3DQEBAQUAA4IBDwAwggEKAoIB
AQC8gdB3XzO7290DO6FT3p3JJqapMMUPegBkvmcLp/eHURF1N8qLU+Eb/FVsCpWd
zsdIQgWjwCto2tEtqJ7pSx/OlwoMdAC/6gm/k6iS9EnSEbV09M+vQyqZ9z8wk9IM
Tf3zCoXICKGVB5cNter2mdHU3NsVAq2fzwGbX4nVX3i6LyeNUBYS1eOLjYdg6xWG
1jeKwBmN/B7LnvpF0VoLtSP1ikwyOkpRjLpMXXijYsIHkqaxuWInMKplzZMZmNYS
3EWvRAJn/p2tiNdO0UEoUW9F7DXIEZZr5LETfbkAYWZpxjIRpvAeUKN+KuEoLmpx
CvvfZy9qA7ixxHyDfrhyg8EHAgMBAAGjggFyMIIBbjAdBgNVHQ4EFgQUP9g3JLq/
DIdDSBPR84sAcM1tvvEwgaUGA1UdIwSBnTCBmoAUP9g3JLq/DIdDSBPR84sAcM1t
vvGhd6R1MHMxCzAJBgNVBAYTAkZSMQwwCgYDVQQIEwNJREYxDjAMBgNVBAcTBVBh
cmlzMS8wLQYDVQQKEyZMb2NhbCBOT0RFLU9QQ1VBIENlcnRpZmljYXRlIEF1dGhv
cml0eTEVMBMGA1UEAxMMTm9kZU9QQ1VBLUNBggkAn0GEtsNhmIgwDAYDVR0TBAUw
AwEB/zAOBgNVHQ8BAf8EBAMCAQYwVwYJYIZIAYb4QgENBEoWSENBIENlcnRpZmlj
YXRlIGdlbmVyYXRlZCBieSBOb2RlLU9QQ1VBIENlcnRpZmljYXRlIHV0aWxpdHkg
dXNpbmcgb3BlbnNzbDAuBgNVHR8EJzAlMCOgIaAfhh1odHRwOi8vbG9jYWxob3N0
Ojg5MDAvY3JsLnBlbTANBgkqhkiG9w0BAQsFAAOCAQEAbkaixJfxlBnMXoilGaaG
c2Qv97eRSp91ZMUWK4Bl7Qp06E37+4tc4L3wxFYmWDwWvdCr6VtZJuWAODVO0J9/
AsXJmJh6tHbUjpWuv/mZTyWn30fbfjVZVj8oekQimy9yLZiHeiEZqmaqUvwPEwo9
yRnri6wBYHd+6CgrUrwMY6JU+x2YItgf1CkXVPEFXlzHJtkqkIWuIhGURnS27OPI
rMVOagFNy1l3iV80zTgKmB2XJC4FG2jUUbcMCycL8hh1gYytG830I8zvR6ulIm9w
VR58TEbQTYZ3MpgCUUgtqHuwhwfsVWJqlrqlCWnYJmGLflkkczKlss0UvwkhlPXD
Pg==
-----END CERTIFICATE-----
