Certificate:
    Data:
        Version: 3 (0x2)
        Serial Number: 4097 (0x1001)
    Signature Algorithm: sha256WithRSAEncryption
        Issuer: C=FR, ST=IDF, L=Paris, O=Local NODE-OPCUA Certificate Authority, CN=NodeOPCUA-CA
        Validity
            Not Before: Dec 13 23:39:48 2016 GMT
            Not After : Dec 23 23:39:48 2016 GMT
        Subject: C=FR, O=NodeOPCUA, CN=NodeOPCUA
        Subject Public Key Info:
            Public Key Algorithm: rsaEncryption
                Public-Key: (2048 bit)
                Modulus:
                    00:c8:3a:58:33:7e:72:31:99:9c:4d:21:d8:f5:5f:
                    b4:59:a9:50:d2:3c:ab:01:18:1e:74:6d:73:7e:2f:
                    b1:41:e6:88:c7:e5:4d:68:f3:af:c8:14:42:5d:9b:
                    86:58:fe:31:a4:ca:14:ae:7b:98:f9:01:9a:55:96:
                    c6:44:34:c5:15:88:8b:16:5f:e1:42:9a:68:85:91:
                    34:3d:96:3f:07:08:0a:b1:62:7f:c0:3c:ea:c9:bc:
                    6c:1b:a8:3e:df:64:fc:f9:8d:f8:68:0c:80:7f:de:
                    05:25:8d:6b:53:9b:46:60:f1:61:98:af:f5:c8:c9:
                    85:0b:83:e2:17:e5:50:38:3f:c7:9f:b5:1c:2d:84:
                    13:5b:9e:9c:79:01:7b:a1:ff:33:e2:1f:b4:49:d5:
                    d7:b4:4c:e6:8a:9a:8d:1e:e7:7c:fa:04:79:ea:c2:
                    95:d7:4d:59:db:d4:38:9e:6a:20:79:37:f7:7d:a2:
                    30:d0:a6:df:7d:cb:28:32:f3:2f:6b:e1:2b:7e:be:
                    c5:09:31:06:52:36:58:4f:4f:bf:56:c1:4e:38:07:
                    db:cd:ed:87:c3:09:08:17:ac:65:13:d6:55:9e:e5:
                    b5:96:83:b8:f3:0b:a9:69:64:44:2e:04:c7:a3:54:
                    52:48:74:4d:47:a7:6c:4a:ba:c4:04:87:c6:56:1e:
                    3b:ab
                Exponent: 65537 (0x10001)
        X509v3 extensions:
            X509v3 Basic Constraints: critical
                CA:FALSE
            X509v3 Subject Key Identifier: 
                D9:51:4D:B6:2D:8F:89:76:16:DE:D4:26:A9:6E:6F:F6:59:26:92:96
            X509v3 Authority Key Identifier: 
                keyid:3F:D8:37:24:BA:BF:0C:87:43:48:13:D1:F3:8B:00:70:CD:6D:BE:F1
                DirName:/C=FR/ST=IDF/L=Paris/O=Local NODE-OPCUA Certificate Authority/CN=NodeOPCUA-CA
                serial:9F:41:84:B6:C3:61:98:88

            X509v3 Subject Alternative Name: 
                URI:urn:imac.local:Node-OPCUA-Server, DNS:TOTO, DNS:TITI, DNS:TATA
            Netscape Comment: 
                OpenSSL Generated Certificate
            X509v3 Key Usage: critical
                Digital Signature, Non Repudiation, Key Encipherment, Data Encipherment, Key Agreement, Certificate Sign
            X509v3 Extended Key Usage: critical
                TLS Web Server Authentication, TLS Web Client Authentication
    Signature Algorithm: sha256WithRSAEncryption
         ab:75:e8:15:11:45:53:63:1e:55:77:29:1f:91:6b:62:84:40:
         e2:6a:89:01:ef:d0:fd:8c:c2:4a:ec:13:cb:2a:05:27:41:3e:
         3f:8e:96:ee:79:5d:04:84:b6:a3:b1:16:9b:93:38:6c:46:65:
         93:55:74:72:d1:69:19:fb:9c:b0:84:11:d6:89:e7:7c:5a:49:
         d7:82:85:88:28:ff:97:2b:f2:e6:3f:db:03:a6:e9:2e:d5:0f:
         c5:12:38:ed:30:9d:8a:25:bc:29:79:c3:fd:87:b0:8c:2e:64:
         3e:4a:b8:86:82:14:ad:92:65:11:97:71:af:bf:a2:72:4e:22:
         bb:8f:fa:20:0c:2d:1b:40:90:95:92:35:0a:b3:e1:ba:57:19:
         2d:e7:a1:9c:9a:e9:ef:38:1d:f5:8e:a9:d0:b4:0a:c6:bb:96:
         dd:32:7e:e0:fc:38:2c:c6:e3:78:af:8e:7a:69:9e:84:03:38:
         ee:92:67:57:53:14:5e:2b:94:cf:11:38:43:68:95:f0:3a:ef:
         aa:d6:93:6b:09:89:0c:a5:43:6d:b8:1e:df:1f:da:2c:47:44:
         af:62:61:2e:e7:ee:91:7c:6c:a9:ea:d6:a6:36:2d:23:1c:93:
         2b:27:97:3e:5d:14:ef:13:be:5d:6f:62:4b:41:54:88:4a:e3:
         55:7b:c2:ab
-----BEGIN CERTIFICATE-----
MIIEojCCA4qgAwIBAgICEAEwDQYJKoZIhvcNAQELBQAwczELMAkGA1UEBhMCRlIx
DDAKBgNVBAgTA0lERjEOMAwGA1UEBxMFUGFyaXMxLzAtBgNVBAoTJkxvY2FsIE5P
REUtT1BDVUEgQ2VydGlmaWNhdGUgQXV0aG9yaXR5MRUwEwYDVQQDEwxOb2RlT1BD
VUEtQ0EwIhgPMjAxNjEyMTMyMzM5NDhaGA8yMDE2MTIyMzIzMzk0OFowNTELMAkG
A1UEBhMCRlIxEjAQBgNVBAoMCU5vZGVPUENVQTESMBAGA1UEAwwJTm9kZU9QQ1VB
MIIBIjANBgkqhkiG9w0BAQEFAAOCAQ8AMIIBCgKCAQEAyDpYM35yMZmcTSHY9V+0
WalQ0jyrARgedG1zfi+xQeaIx+VNaPOvyBRCXZuGWP4xpMoUrnuY+QGaVZbGRDTF
FYiLFl/hQppohZE0PZY/BwgKsWJ/wDzqybxsG6g+32T8+Y34aAyAf94FJY1rU5tG
YPFhmK/1yMmFC4PiF+VQOD/Hn7UcLYQTW56ceQF7of8z4h+0SdXXtEzmipqNHud8
+gR56sKV101Z29Q4nmogeTf3faIw0KbffcsoMvMva+Erfr7FCTEGUjZYT0+/VsFO
OAfbze2HwwkIF6xlE9ZVnuW1loO48wupaWRELgTHo1RSSHRNR6dsSrrEBIfGVh47
qwIDAQABo4IBeDCCAXQwDAYDVR0TAQH/BAIwADAdBgNVHQ4EFgQU2VFNti2PiXYW
3tQmqW5v9lkmkpYwgaUGA1UdIwSBnTCBmoAUP9g3JLq/DIdDSBPR84sAcM1tvvGh
d6R1MHMxCzAJBgNVBAYTAkZSMQwwCgYDVQQIEwNJREYxDjAMBgNVBAcTBVBhcmlz
MS8wLQYDVQQKEyZMb2NhbCBOT0RFLU9QQ1VBIENlcnRpZmljYXRlIEF1dGhvcml0
eTEVMBMGA1UEAxMMTm9kZU9QQ1VBLUNBggkAn0GEtsNhmIgwPQYDVR0RBDYwNIYg
dXJuOmltYWMubG9jYWw6Tm9kZS1PUENVQS1TZXJ2ZXKCBFRPVE+CBFRJVEmCBFRB
VEEwLAYJYIZIAYb4QgENBB8WHU9wZW5TU0wgR2VuZXJhdGVkIENlcnRpZmljYXRl
MA4GA1UdDwEB/wQEAwIC/DAgBgNVHSUBAf8EFjAUBggrBgEFBQcDAQYIKwYBBQUH
AwIwDQYJKoZIhvcNAQELBQADggEBAKt16BURRVNjHlV3KR+Ra2KEQOJqiQHv0P2M
wkrsE8sqBSdBPj+Olu55XQSEtqOxFpuTOGxGZZNVdHLRaRn7nLCEEdaJ53xaSdeC
hYgo/5cr8uY/2wOm6S7VD8USOO0wnYolvCl5w/2HsIwuZD5KuIaCFK2SZRGXca+/
onJOIruP+iAMLRtAkJWSNQqz4bpXGS3noZya6e84HfWOqdC0Csa7lt0yfuD8OCzG
43ivjnppnoQDOO6SZ1dTFF4rlM8ROENolfA676rWk2sJiQylQ224Ht8f2ixHRK9i
YS7n7pF8bKnq1qY2LSMckysnlz5dFO8Tvl1vYktBVIhK41V7wqs=
-----END CERTIFICATE-----
-----BEGIN CERTIFICATE-----
MIIE3TCCA8WgAwIBAgIJAJ9BhLbDYZiIMA0GCSqGSIb3DQEBCwUAMHMxCzAJBgNV
BAYTAkZSMQwwCgYDVQQIEwNJREYxDjAMBgNVBAcTBVBhcmlzMS8wLQYDVQQKEyZM
b2NhbCBOT0RFLU9QQ1VBIENlcnRpZmljYXRlIEF1dGhvcml0eTEVMBMGA1UEAxMM
Tm9kZU9QQ1VBLUNBMB4XDTE2MTIxMzIzMzgzMloXDTI2MTIxMTIzMzgzMlowczEL
MAkGA1UEBhMCRlIxDDAKBgNVBAgTA0lERjEOMAwGA1UEBxMFUGFyaXMxLzAtBgNV
BAoTJkxvY2FsIE5PREUtT1BDVUEgQ2VydGlmaWNhdGUgQXV0aG9yaXR5MRUwEwYD
VQQDEwxOb2RlT1BDVUEtQ0EwggEiMA0GCSqGSIb3DQEBAQUAA4IBDwAwggEKAoIB
AQC8gdB3XzO7290DO6FT3p3JJqapMMUPegBkvmcLp/eHURF1N8qLU+Eb/FVsCpWd
zsdIQgWjwCto2tEtqJ7pSx/OlwoMdAC/6gm/k6iS9EnSEbV09M+vQyqZ9z8wk9IM
Tf3zCoXICKGVB5cNter2mdHU3NsVAq2fzwGbX4nVX3i6LyeNUBYS1eOLjYdg6xWG
1jeKwBmN/B7LnvpF0VoLtSP1ikwyOkpRjLpMXXijYsIHkqaxuWInMKplzZMZmNYS
3EWvRAJn/p2tiNdO0UEoUW9F7DXIEZZr5LETfbkAYWZpxjIRpvAeUKN+KuEoLmpx
CvvfZy9qA7ixxHyDfrhyg8EHAgMBAAGjggFyMIIBbjAdBgNVHQ4EFgQUP9g3JLq/
DIdDSBPR84sAcM1tvvEwgaUGA1UdIwSBnTCBmoAUP9g3JLq/DIdDSBPR84sAcM1t
vvGhd6R1MHMxCzAJBgNVBAYTAkZSMQwwCgYDVQQIEwNJREYxDjAMBgNVBAcTBVBh
cmlzMS8wLQYDVQQKEyZMb2NhbCBOT0RFLU9QQ1VBIENlcnRpZmljYXRlIEF1dGhv
cml0eTEVMBMGA1UEAxMMTm9kZU9QQ1VBLUNBggkAn0GEtsNhmIgwDAYDVR0TBAUw
AwEB/zAOBgNVHQ8BAf8EBAMCAQYwVwYJYIZIAYb4QgENBEoWSENBIENlcnRpZmlj
YXRlIGdlbmVyYXRlZCBieSBOb2RlLU9QQ1VBIENlcnRpZmljYXRlIHV0aWxpdHkg
dXNpbmcgb3BlbnNzbDAuBgNVHR8EJzAlMCOgIaAfhh1odHRwOi8vbG9jYWxob3N0
Ojg5MDAvY3JsLnBlbTANBgkqhkiG9w0BAQsFAAOCAQEAbkaixJfxlBnMXoilGaaG
c2Qv97eRSp91ZMUWK4Bl7Qp06E37+4tc4L3wxFYmWDwWvdCr6VtZJuWAODVO0J9/
AsXJmJh6tHbUjpWuv/mZTyWn30fbfjVZVj8oekQimy9yLZiHeiEZqmaqUvwPEwo9
yRnri6wBYHd+6CgrUrwMY6JU+x2YItgf1CkXVPEFXlzHJtkqkIWuIhGURnS27OPI
rMVOagFNy1l3iV80zTgKmB2XJC4FG2jUUbcMCycL8hh1gYytG830I8zvR6ulIm9w
VR58TEbQTYZ3MpgCUUgtqHuwhwfsVWJqlrqlCWnYJmGLflkkczKlss0UvwkhlPXD
Pg==
-----END CERTIFICATE-----
