Certificate:
    Data:
        Version: 3 (0x2)
        Serial Number: 4098 (0x1002)
    Signature Algorithm: sha256WithRSAEncryption
        Issuer: C=FR, ST=IDF, L=Paris, O=Local NODE-OPCUA Certificate Authority, CN=NodeOPCUA-CA
        Validity
            Not Before: Dec 13 23:40:00 2016 GMT
            Not After : Dec 23 23:40:00 2016 GMT
        Subject: C=FR, O=NodeOPCUA, CN=NodeOPCUA
        Subject Public Key Info:
            Public Key Algorithm: rsaEncryption
                Public-Key: (2048 bit)
                Modulus:
                    00:c8:3a:58:33:7e:72:31:99:9c:4d:21:d8:f5:5f:
                    b4:59:a9:50:d2:3c:ab:01:18:1e:74:6d:73:7e:2f:
                    b1:41:e6:88:c7:e5:4d:68:f3:af:c8:14:42:5d:9b:
                    86:58:fe:31:a4:ca:14:ae:7b:98:f9:01:9a:55:96:
                    c6:44:34:c5:15:88:8b:16:5f:e1:42:9a:68:85:91:
                    34:3d:96:3f:07:08:0a:b1:62:7f:c0:3c:ea:c9:bc:
                    6c:1b:a8:3e:df:64:fc:f9:8d:f8:68:0c:80:7f:de:
                    05:25:8d:6b:53:9b:46:60:f1:61:98:af:f5:c8:c9:
                    85:0b:83:e2:17:e5:50:38:3f:c7:9f:b5:1c:2d:84:
                    13:5b:9e:9c:79:01:7b:a1:ff:33:e2:1f:b4:49:d5:
                    d7:b4:4c:e6:8a:9a:8d:1e:e7:7c:fa:04:79:ea:c2:
                    95:d7:4d:59:db:d4:38:9e:6a:20:79:37:f7:7d:a2:
                    30:d0:a6:df:7d:cb:28:32:f3:2f:6b:e1:2b:7e:be:
                    c5:09:31:06:52:36:58:4f:4f:bf:56:c1:4e:38:07:
                    db:cd:ed:87:c3:09:08:17:ac:65:13:d6:55:9e:e5:
                    b5:96:83:b8:f3:0b:a9:69:64:44:2e:04:c7:a3:54:
                    52:48:74:4d:47:a7:6c:4a:ba:c4:04:87:c6:56:1e:
                    3b:ab
                Exponent: 65537 (0x10001)
        X509v3 extensions:
            X509v3 Basic Constraints: critical
                CA:FALSE
            X509v3 Subject Key Identifier: 
                D9:51:4D:B6:2D:8F:89:76:16:DE:D4:26:A9:6E:6F:F6:59:26:92:96
            X509v3 Authority Key Identifier: 
                keyid:3F:D8:37:24:BA:BF:0C:87:43:48:13:D1:F3:8B:00:70:CD:6D:BE:F1
                DirName:/C=FR/ST=IDF/L=Paris/O=Local NODE-OPCUA Certificate Authority/CN=NodeOPCUA-CA
                serial:9F:41:84:B6:C3:61:98:88

            X509v3 Subject Alternative Name: 
                URI:urn:imac.local:Node-OPCUA-Server, DNS:TOTO, DNS:TITI, DNS:TATA
            Netscape Comment: 
                OpenSSL Generated Certificate
            X509v3 Key Usage: critical
                Digital Signature, Non Repudiation, Key Encipherment, Data Encipherment, Key Agreement, Certificate Sign
            X509v3 Extended Key Usage: critical
                TLS Web Server Authentication, TLS Web Client Authentication
    Signature Algorithm: sha256WithRSAEncryption
         28:68:39:4c:a7:1a:a7:54:1f:cc:ae:e8:9c:6b:cc:60:ad:9b:
         2c:52:90:a3:96:e5:62:71:f4:0d:4f:17:1d:91:2b:78:fc:42:
         a6:7c:43:b2:20:71:2a:30:8d:bf:b7:d3:81:cc:9a:bf:c5:3f:
         eb:73:7a:87:ae:64:d4:50:b6:9b:f1:f8:32:e5:75:49:81:33:
         14:18:51:02:82:4b:2a:1e:c6:a1:6f:5e:f2:91:bf:43:39:52:
         85:fa:08:73:08:0d:8c:12:cf:35:74:76:3c:e4:c6:07:1e:ee:
         02:9a:08:49:7c:d3:be:7d:47:f5:0f:76:70:3a:8f:c4:5d:87:
         df:11:5f:b0:a0:0f:bf:6d:d5:77:fa:9d:cb:b7:8c:ec:42:5d:
         29:e8:aa:68:2f:27:06:ab:41:c2:95:8b:7c:af:e0:e8:43:68:
         05:9e:c0:36:30:62:50:7a:73:49:84:bf:49:17:9a:60:17:57:
         dd:a6:48:28:46:fb:ac:f4:cf:83:e0:f1:02:95:ec:e8:27:1c:
         35:d4:53:bc:ba:18:ec:90:b0:ad:d7:0a:57:a1:ad:fd:9f:13:
         99:fe:69:7f:07:32:15:cb:f1:ed:0a:81:1c:51:0c:79:42:45:
         1b:ce:23:92:b8:3f:81:f1:ee:ce:3b:96:eb:c4:2f:92:21:c6:
         a7:fd:9a:80
-----BEGIN CERTIFICATE-----
MIIEojCCA4qgAwIBAgICEAIwDQYJKoZIhvcNAQELBQAwczELMAkGA1UEBhMCRlIx
DDAKBgNVBAgTA0lERjEOMAwGA1UEBxMFUGFyaXMxLzAtBgNVBAoTJkxvY2FsIE5P
REUtT1BDVUEgQ2VydGlmaWNhdGUgQXV0aG9yaXR5MRUwEwYDVQQDEwxOb2RlT1BD
VUEtQ0EwIhgPMjAxNjEyMTMyMzQwMDBaGA8yMDE2MTIyMzIzNDAwMFowNTELMAkG
A1UEBhMCRlIxEjAQBgNVBAoMCU5vZGVPUENVQTESMBAGA1UEAwwJTm9kZU9QQ1VB
MIIBIjANBgkqhkiG9w0BAQEFAAOCAQ8AMIIBCgKCAQEAyDpYM35yMZmcTSHY9V+0
WalQ0jyrARgedG1zfi+xQeaIx+VNaPOvyBRCXZuGWP4xpMoUrnuY+QGaVZbGRDTF
FYiLFl/hQppohZE0PZY/BwgKsWJ/wDzqybxsG6g+32T8+Y34aAyAf94FJY1rU5tG
YPFhmK/1yMmFC4PiF+VQOD/Hn7UcLYQTW56ceQF7of8z4h+0SdXXtEzmipqNHud8
+gR56sKV101Z29Q4nmogeTf3faIw0KbffcsoMvMva+Erfr7FCTEGUjZYT0+/VsFO
OAfbze2HwwkIF6xlE9ZVnuW1loO48wupaWRELgTHo1RSSHRNR6dsSrrEBIfGVh47
qwIDAQABo4IBeDCCAXQwDAYDVR0TAQH/BAIwADAdBgNVHQ4EFgQU2VFNti2PiXYW
3tQmqW5v9lkmkpYwgaUGA1UdIwSBnTCBmoAUP9g3JLq/DIdDSBPR84sAcM1tvvGh
d6R1MHMxCzAJBgNVBAYTAkZSMQwwCgYDVQQIEwNJREYxDjAMBgNVBAcTBVBhcmlz
MS8wLQYDVQQKEyZMb2NhbCBOT0RFLU9QQ1VBIENlcnRpZmljYXRlIEF1dGhvcml0
eTEVMBMGA1UEAxMMTm9kZU9QQ1VBLUNBggkAn0GEtsNhmIgwPQYDVR0RBDYwNIYg
dXJuOmltYWMubG9jYWw6Tm9kZS1PUENVQS1TZXJ2ZXKCBFRPVE+CBFRJVEmCBFRB
VEEwLAYJYIZIAYb4QgENBB8WHU9wZW5TU0wgR2VuZXJhdGVkIENlcnRpZmljYXRl
MA4GA1UdDwEB/wQEAwIC/DAgBgNVHSUBAf8EFjAUBggrBgEFBQcDAQYIKwYBBQUH
AwIwDQYJKoZIhvcNAQELBQADggEBAChoOUynGqdUH8yu6JxrzGCtmyxSkKOW5WJx
9A1PFx2RK3j8QqZ8Q7IgcSowjb+304HMmr/FP+tzeoeuZNRQtpvx+DLldUmBMxQY
UQKCSyoexqFvXvKRv0M5UoX6CHMIDYwSzzV0djzkxgce7gKaCEl80759R/UPdnA6
j8Rdh98RX7CgD79t1Xf6ncu3jOxCXSnoqmgvJwarQcKVi3yv4OhDaAWewDYwYlB6
c0mEv0kXmmAXV92mSChG+6z0z4Pg8QKV7OgnHDXUU7y6GOyQsK3XClehrf2fE5n+
aX8HMhXL8e0KgRxRDHlCRRvOI5K4P4Hx7s47luvEL5Ihxqf9moA=
-----END CERTIFICATE-----
-----BEGIN CERTIFICATE-----
MIIE3TCCA8WgAwIBAgIJAJ9BhLbDYZiIMA0GCSqGSIb3DQEBCwUAMHMxCzAJBgNV
BAYTAkZSMQwwCgYDVQQIEwNJREYxDjAMBgNVBAcTBVBhcmlzMS8wLQYDVQQKEyZM
b2NhbCBOT0RFLU9QQ1VBIENlcnRpZmljYXRlIEF1dGhvcml0eTEVMBMGA1UEAxMM
Tm9kZU9QQ1VBLUNBMB4XDTE2MTIxMzIzMzgzMloXDTI2MTIxMTIzMzgzMlowczEL
MAkGA1UEBhMCRlIxDDAKBgNVBAgTA0lERjEOMAwGA1UEBxMFUGFyaXMxLzAtBgNV
BAoTJkxvY2FsIE5PREUtT1BDVUEgQ2VydGlmaWNhdGUgQXV0aG9yaXR5MRUwEwYD
VQQDEwxOb2RlT1BDVUEtQ0EwggEiMA0GCSqGSIb3DQEBAQUAA4IBDwAwggEKAoIB
AQC8gdB3XzO7290DO6FT3p3JJqapMMUPegBkvmcLp/eHURF1N8qLU+Eb/FVsCpWd
zsdIQgWjwCto2tEtqJ7pSx/OlwoMdAC/6gm/k6iS9EnSEbV09M+vQyqZ9z8wk9IM
Tf3zCoXICKGVB5cNter2mdHU3NsVAq2fzwGbX4nVX3i6LyeNUBYS1eOLjYdg6xWG
1jeKwBmN/B7LnvpF0VoLtSP1ikwyOkpRjLpMXXijYsIHkqaxuWInMKplzZMZmNYS
3EWvRAJn/p2tiNdO0UEoUW9F7DXIEZZr5LETfbkAYWZpxjIRpvAeUKN+KuEoLmpx
CvvfZy9qA7ixxHyDfrhyg8EHAgMBAAGjggFyMIIBbjAdBgNVHQ4EFgQUP9g3JLq/
DIdDSBPR84sAcM1tvvEwgaUGA1UdIwSBnTCBmoAUP9g3JLq/DIdDSBPR84sAcM1t
vvGhd6R1MHMxCzAJBgNVBAYTAkZSMQwwCgYDVQQIEwNJREYxDjAMBgNVBAcTBVBh
cmlzMS8wLQYDVQQKEyZMb2NhbCBOT0RFLU9QQ1VBIENlcnRpZmljYXRlIEF1dGhv
cml0eTEVMBMGA1UEAxMMTm9kZU9QQ1VBLUNBggkAn0GEtsNhmIgwDAYDVR0TBAUw
AwEB/zAOBgNVHQ8BAf8EBAMCAQYwVwYJYIZIAYb4QgENBEoWSENBIENlcnRpZmlj
YXRlIGdlbmVyYXRlZCBieSBOb2RlLU9QQ1VBIENlcnRpZmljYXRlIHV0aWxpdHkg
dXNpbmcgb3BlbnNzbDAuBgNVHR8EJzAlMCOgIaAfhh1odHRwOi8vbG9jYWxob3N0
Ojg5MDAvY3JsLnBlbTANBgkqhkiG9w0BAQsFAAOCAQEAbkaixJfxlBnMXoilGaaG
c2Qv97eRSp91ZMUWK4Bl7Qp06E37+4tc4L3wxFYmWDwWvdCr6VtZJuWAODVO0J9/
AsXJmJh6tHbUjpWuv/mZTyWn30fbfjVZVj8oekQimy9yLZiHeiEZqmaqUvwPEwo9
yRnri6wBYHd+6CgrUrwMY6JU+x2YItgf1CkXVPEFXlzHJtkqkIWuIhGURnS27OPI
rMVOagFNy1l3iV80zTgKmB2XJC4FG2jUUbcMCycL8hh1gYytG830I8zvR6ulIm9w
VR58TEbQTYZ3MpgCUUgtqHuwhwfsVWJqlrqlCWnYJmGLflkkczKlss0UvwkhlPXD
Pg==
-----END CERTIFICATE-----
